(lp1
(lp2
I1
aI1
aI1840000
aI2320000
aa(lp3
I1
aI2
aI2320000
aI3600000
aa(lp4
I1
aI3
aI3760000
aI6000000
aa(lp5
I1
aI4
aI6200000
aI6440000
aa(lp6
I1
aI5
aI6440000
aI7920000
aa(lp7
I1
aI6
aI7960000
aI8320000
aa(lp8
I1
aI7
aI8320000
aI8880000
aa(lp9
I1
aI8
aI8880000
aI9600000
aa(lp10
I1
aI9
aI9600000
aI10400000
aa(lp11
I1
aI10
aI10400000
aI11000000
aa(lp12
I1
aI11
aI11000000
aI12040000
aa(lp13
I1
aI12
aI12040000
aI12240000
aa(lp14
I1
aI13
aI12240000
aI12680000
aa(lp15
I1
aI14
aI12680000
aI13080000
aa(lp16
I1
aI15
aI13640000
aI15320000
aa(lp17
I1
aI16
aI15320000
aI15720000
aa(lp18
I1
aI17
aI15720000
aI16240000
aa(lp19
I1
aI18
aI16280000
aI16720000
aa(lp20
I1
aI19
aI16720000
aI17160000
aa(lp21
I1
aI20
aI17160000
aI17600000
aa(lp22
I1
aI21
aI17640000
aI19080000
aa(lp23
I1
aI22
aI19080000
aI19880000
aa(lp24
I1
aI23
aI19880000
aI20720000
aa(lp25
I1
aI24
aI20720000
aI21400000
aa(lp26
I1
aI25
aI21400000
aI21880000
aa(lp27
I1
aI26
aI21880000
aI22240000
aa(lp28
I1
aI27
aI22240000
aI22840000
aa(lp29
I1
aI28
aI22840000
aI23160000
aa(lp30
I1
aI29
aI23160000
aI23480000
aa(lp31
I1
aI30
aI23480000
aI23960000
aa(lp32
I1
aI31
aI23960000
aI24840000
aa(lp33
I1
aI32
aI24840000
aI25040000
aa(lp34
I1
aI33
aI25080000
aI25440000
aa(lp35
I1
aI34
aI25440000
aI26040000
aa(lp36
I1
aI35
aI26080000
aI26680000
aa(lp37
I1
aI36
aI26680000
aI27120000
aa(lp38
I1
aI37
aI27120000
aI27520000
aa(lp39
I1
aI38
aI27520000
aI28000000
aa(lp40
I1
aI39
aI28000000
aI28440000
aa(lp41
I1
aI40
aI28440000
aI28840000
aa(lp42
I1
aI41
aI28840000
aI29400000
aa(lp43
I1
aI42
aI29400000
aI30960000
aa(lp44
I1
aI43
aI30960000
aI32320000
aa(lp45
I1
aI44
aI32440000
aI32640000
aa(lp46
I1
aI45
aI32640000
aI33320000
aa(lp47
I1
aI46
aI33320000
aI33720000
aa(lp48
I1
aI47
aI33720000
aI35000000
aa(lp49
I1
aI48
aI35080000
aI36320000
aa(lp50
I1
aI49
aI36320000
aI36720000
aa(lp51
I1
aI50
aI36720000
aI38040000
aa(lp52
I1
aI51
aI38040000
aI39080000
aa(lp53
I1
aI52
aI39080000
aI39800000
aa(lp54
I1
aI53
aI39800000
aI40000000
aa(lp55
I1
aI54
aI40000000
aI40280000
aa(lp56
I1
aI55
aI40280000
aI40760000
aa(lp57
I1
aI56
aI40760000
aI41240000
aa(lp58
I1
aI57
aI41240000
aI43000000
aa(lp59
I1
aI58
aI43000000
aI43400000
aa(lp60
I1
aI59
aI43440000
aI44240000
aa(lp61
I1
aI60
aI44240000
aI44960000
aa(lp62
I1
aI61
aI44960000
aI45800000
aa(lp63
I1
aI62
aI45800000
aI46600000
aa(lp64
I1
aI63
aI46600000
aI48160000
aa(lp65
I1
aI64
aI48320000
aI50600000
aa(lp66
I1
aI65
aI50600000
aI51560000
aa(lp67
I1
aI66
aI51560000
aI52040000
aa(lp68
I1
aI67
aI52040000
aI52600000
aa(lp69
I1
aI68
aI52600000
aI52920000
aa(lp70
I1
aI69
aI52920000
aI53480000
aa(lp71
I1
aI70
aI53480000
aI54080000
aa(lp72
I1
aI71
aI54080000
aI55280000
aa(lp73
I1
aI72
aI55280000
aI57040000
aa(lp74
I1
aI73
aI57040000
aI58760000
aa(lp75
I1
aI74
aI58760000
aI60080000
aa(lp76
I1
aI75
aI60200000
aI62320000
aa(lp77
I1
aI76
aI62400000
aI62640000
aa(lp78
I1
aI77
aI62640000
aI63040000
aa(lp79
I1
aI78
aI63040000
aI63760000
aa(lp80
I1
aI79
aI63760000
aI64520000
aa(lp81
I1
aI80
aI64520000
aI65280000
aa(lp82
I1
aI81
aI65280000
aI65960000
aa(lp83
I1
aI82
aI65960000
aI66480000
aa(lp84
I1
aI83
aI66480000
aI66960000
aa(lp85
I1
aI84
aI66960000
aI67760000
aa(lp86
I1
aI85
aI67760000
aI68040000
aa(lp87
I1
aI86
aI68040000
aI68680000
aa(lp88
I1
aI87
aI68720000
aI71280000
aa(lp89
I1
aI88
aI71320000
aI74960000
aa(lp90
I1
aI89
aI75000000
aI77360000
aa(lp91
I1
aI90
aI77360000
aI77920000
aa(lp92
I1
aI91
aI78160000
aI78360000
aa(lp93
I1
aI92
aI78360000
aI78920000
aa(lp94
I1
aI93
aI78920000
aI80440000
aa(lp95
I1
aI94
aI80480000
aI84120000
aa(lp96
I1
aI95
aI84120000
aI85520000
aa(lp97
I1
aI96
aI85520000
aI86600000
aa(lp98
I1
aI97
aI86600000
aI87320000
aa(lp99
I1
aI98
aI87320000
aI88880000
aa(lp100
I1
aI99
aI88880000
aI89120000
aa(lp101
I1
aI100
aI89120000
aI90280000
aa(lp102
I1
aI101
aI90280000
aI91640000
aa(lp103
I1
aI102
aI91720000
aI92200000
aa(lp104
I1
aI103
aI92200000
aI92560000
aa(lp105
I1
aI104
aI92560000
aI92880000
aa(lp106
I1
aI105
aI92920000
aI94160000
aa(lp107
I1
aI106
aI94160000
aI94720000
aa(lp108
I1
aI107
aI94720000
aI95360000
aa(lp109
I1
aI108
aI95360000
aI97080000
aa(lp110
I1
aI109
aI97160000
aI98800000
aa(lp111
I1
aI110
aI98920000
aI100000000
aa(lp112
I1
aI111
aI100000000
aI101640000
aa(lp113
I1
aI112
aI101680000
aI103840000
aa(lp114
I1
aI113
aI104080000
aI108120000
aa(lp115
I1
aI114
aI108120000
aI108480000
aa(lp116
I1
aI115
aI108840000
aI109760000
aa(lp117
I1
aI116
aI109880000
aI110120000
aa(lp118
I1
aI117
aI110120000
aI110400000
aa(lp119
I1
aI118
aI110400000
aI110840000
aa(lp120
I1
aI119
aI110840000
aI112720000
aa(lp121
I1
aI120
aI112720000
aI113040000
aa(lp122
I1
aI121
aI113040000
aI113440000
aa(lp123
I1
aI122
aI113440000
aI114120000
aa(lp124
I1
aI123
aI114280000
aI115120000
aa(lp125
I1
aI124
aI115120000
aI116120000
aa(lp126
I1
aI125
aI116120000
aI116920000
aa(lp127
I1
aI126
aI116920000
aI117400000
aa(lp128
I1
aI127
aI117400000
aI117640000
aa(lp129
I1
aI128
aI117640000
aI118320000
aa(lp130
I1
aI129
aI118320000
aI120080000
aa(lp131
I1
aI130
aI120080000
aI121080000
aa(lp132
I1
aI131
aI141480000
aI142200000
aa(lp133
I1
aI132
aI143560000
aI144480000
aa(lp134
I1
aI133
aI144960000
aI146320000
aa(lp135
I1
aI134
aI147200000
aI148480000
aa(lp136
I1
aI135
aI148480000
aI149520000
aa(lp137
I1
aI136
aI149640000
aI150280000
aa(lp138
I1
aI137
aI150280000
aI151560000
aa(lp139
I1
aI138
aI151760000
aI152240000
aa(lp140
I1
aI139
aI152240000
aI152400000
aa(lp141
I1
aI140
aI152400000
aI153440000
aa(lp142
I1
aI141
aI153440000
aI155160000
aa(lp143
I1
aI142
aI155280000
aI156360000
aa(lp144
I1
aI143
aI156360000
aI157360000
aa(lp145
I1
aI144
aI157400000
aI158240000
aa(lp146
I1
aI145
aI158320000
aI159400000
aa(lp147
I1
aI146
aI159400000
aI159640000
aa(lp148
I1
aI147
aI159680000
aI160000000
aa(lp149
I1
aI148
aI160000000
aI160760000
aa(lp150
I1
aI149
aI160800000
aI161040000
aa(lp151
I1
aI150
aI161080000
aI161600000
aa(lp152
I1
aI151
aI161600000
aI163360000
aa(lp153
I1
aI152
aI163520000
aI164160000
aa(lp154
I1
aI153
aI164160000
aI165040000
aa(lp155
I1
aI154
aI165080000
aI165920000
aa(lp156
I1
aI155
aI165920000
aI166440000
aa(lp157
I1
aI156
aI166560000
aI168000000
aa(lp158
I1
aI157
aI168000000
aI169720000
aa(lp159
I1
aI158
aI169720000
aI170680000
aa(lp160
I1
aI159
aI170680000
aI172480000
aa(lp161
I1
aI160
aI172480000
aI173240000
aa(lp162
I1
aI161
aI173240000
aI175120000
aa(lp163
I1
aI162
aI175120000
aI176160000
aa(lp164
I1
aI163
aI176160000
aI177320000
aa(lp165
I1
aI164
aI177320000
aI178080000
aa(lp166
I1
aI165
aI178080000
aI178440000
aa(lp167
I1
aI166
aI178440000
aI178720000
aa(lp168
I1
aI167
aI178720000
aI179440000
aa(lp169
I1
aI168
aI179440000
aI181080000
aa(lp170
I1
aI169
aI181080000
aI183000000
aa(lp171
I1
aI170
aI183000000
aI183960000
aa(lp172
I1
aI171
aI183960000
aI184600000
aa(lp173
I1
aI172
aI184600000
aI185240000
aa(lp174
I1
aI173
aI185240000
aI187040000
aa(lp175
I1
aI174
aI187800000
aI188680000
aa(lp176
I1
aI175
aI188680000
aI190680000
aa(lp177
I1
aI176
aI190720000
aI191280000
aa(lp178
I1
aI177
aI191280000
aI194360000
aa(lp179
I1
aI178
aI194360000
aI195040000
aa(lp180
I1
aI179
aI195640000
aI196960000
aa(lp181
I1
aI180
aI196960000
aI197800000
aa(lp182
I1
aI181
aI197800000
aI198800000
aa(lp183
I1
aI182
aI198800000
aI199360000
aa(lp184
I1
aI183
aI199480000
aI199640000
aa(lp185
I1
aI184
aI199680000
aI200080000
aa(lp186
I1
aI185
aI200120000
aI200400000
aa(lp187
I1
aI186
aI200400000
aI201240000
aa(lp188
I1
aI187
aI201240000
aI201480000
aa(lp189
I1
aI188
aI201480000
aI201720000
aa(lp190
I1
aI189
aI201720000
aI202080000
aa(lp191
I1
aI190
aI202080000
aI202400000
aa(lp192
I1
aI191
aI202400000
aI202760000
aa(lp193
I1
aI192
aI202760000
aI203560000
aa(lp194
I1
aI193
aI203560000
aI204520000
aa(lp195
I1
aI194
aI204720000
aI205280000
aa(lp196
I1
aI195
aI205280000
aI205760000
aa(lp197
I1
aI196
aI206040000
aI208000000
aa(lp198
I1
aI197
aI208000000
aI209520000
aa(lp199
I1
aI198
aI209520000
aI209920000
aa(lp200
I1
aI199
aI209920000
aI210200000
aa(lp201
I1
aI200
aI210280000
aI210720000
aa(lp202
I1
aI201
aI210720000
aI211320000
aa(lp203
I1
aI202
aI211320000
aI212440000
aa(lp204
I1
aI203
aI212440000
aI212840000
aa(lp205
I1
aI204
aI212840000
aI213840000
aa(lp206
I1
aI205
aI213880000
aI216480000
aa(lp207
I1
aI206
aI216480000
aI218200000
aa(lp208
I1
aI207
aI218200000
aI219000000
aa(lp209
I1
aI208
aI219000000
aI219680000
aa(lp210
I1
aI209
aI219680000
aI220920000
aa(lp211
I1
aI210
aI220960000
aI221960000
aa(lp212
I1
aI211
aI221960000
aI222720000
aa(lp213
I1
aI212
aI222720000
aI223640000
aa(lp214
I1
aI213
aI223640000
aI224320000
aa(lp215
I1
aI214
aI224640000
aI225720000
aa(lp216
I1
aI215
aI225720000
aI226360000
aa(lp217
I1
aI216
aI226440000
aI226880000
aa(lp218
I1
aI217
aI226880000
aI227720000
aa(lp219
I1
aI218
aI227720000
aI228600000
aa(lp220
I1
aI219
aI228840000
aI229440000
aa(lp221
I1
aI220
aI229480000
aI229800000
aa(lp222
I1
aI221
aI229800000
aI231520000
aa(lp223
I1
aI222
aI231560000
aI232560000
aa(lp224
I1
aI223
aI232560000
aI233360000
aa(lp225
I1
aI224
aI233360000
aI233720000
aa(lp226
I1
aI225
aI233720000
aI234320000
aa(lp227
I1
aI226
aI234320000
aI234800000
aa(lp228
I1
aI227
aI234800000
aI238160000
aa(lp229
I1
aI228
aI238160000
aI238960000
aa(lp230
I1
aI229
aI238960000
aI239760000
aa(lp231
I1
aI230
aI239760000
aI240120000
aa(lp232
I1
aI231
aI240240000
aI241200000
aa(lp233
I1
aI232
aI241400000
aI242680000
aa(lp234
I1
aI233
aI242680000
aI245040000
aa(lp235
I1
aI234
aI245120000
aI245600000
aa(lp236
I1
aI235
aI245600000
aI247249719
aa(lp237
I2
aI1
aI0
aI1520000
aa(lp238
I2
aI2
aI1560000
aI1840000
aa(lp239
I2
aI3
aI2000000
aI3720000
aa(lp240
I2
aI4
aI3920000
aI7000000
aa(lp241
I2
aI5
aI7120000
aI8840000
aa(lp242
I2
aI6
aI8880000
aI9440000
aa(lp243
I2
aI7
aI9480000
aI10120000
aa(lp244
I2
aI8
aI10120000
aI10760000
aa(lp245
I2
aI9
aI10840000
aI11720000
aa(lp246
I2
aI10
aI11800000
aI13080000
aa(lp247
I2
aI11
aI13120000
aI15680000
aa(lp248
I2
aI12
aI15680000
aI17720000
aa(lp249
I2
aI13
aI17800000
aI20400000
aa(lp250
I2
aI14
aI20440000
aI20680000
aa(lp251
I2
aI15
aI20680000
aI23440000
aa(lp252
I2
aI16
aI23440000
aI23880000
aa(lp253
I2
aI17
aI23880000
aI25320000
aa(lp254
I2
aI18
aI25320000
aI25800000
aa(lp255
I2
aI19
aI25880000
aI27120000
aa(lp256
I2
aI20
aI27160000
aI27400000
aa(lp257
I2
aI21
aI27480000
aI27760000
aa(lp258
I2
aI22
aI27760000
aI28640000
aa(lp259
I2
aI23
aI28640000
aI29000000
aa(lp260
I2
aI24
aI29000000
aI30200000
aa(lp261
I2
aI25
aI30200000
aI30800000
aa(lp262
I2
aI26
aI30800000
aI31920000
aa(lp263
I2
aI27
aI31920000
aI32240000
aa(lp264
I2
aI28
aI32600000
aI33680000
aa(lp265
I2
aI29
aI33680000
aI36400000
aa(lp266
I2
aI30
aI36440000
aI37040000
aa(lp267
I2
aI31
aI37160000
aI38000000
aa(lp268
I2
aI32
aI38000000
aI38400000
aa(lp269
I2
aI33
aI38400000
aI39320000
aa(lp270
I2
aI34
aI39400000
aI39840000
aa(lp271
I2
aI35
aI39840000
aI41920000
aa(lp272
I2
aI36
aI41920000
aI42440000
aa(lp273
I2
aI37
aI42440000
aI42800000
aa(lp274
I2
aI38
aI42880000
aI43680000
aa(lp275
I2
aI39
aI44040000
aI45040000
aa(lp276
I2
aI40
aI45040000
aI45680000
aa(lp277
I2
aI41
aI45680000
aI46040000
aa(lp278
I2
aI42
aI46040000
aI46560000
aa(lp279
I2
aI43
aI46720000
aI47000000
aa(lp280
I2
aI44
aI47000000
aI47480000
aa(lp281
I2
aI45
aI47480000
aI47880000
aa(lp282
I2
aI46
aI47880000
aI48560000
aa(lp283
I2
aI47
aI48680000
aI50560000
aa(lp284
I2
aI48
aI50560000
aI53880000
aa(lp285
I2
aI49
aI53880000
aI55720000
aa(lp286
I2
aI50
aI55760000
aI56120000
aa(lp287
I2
aI51
aI56240000
aI57680000
aa(lp288
I2
aI52
aI57760000
aI60760000
aa(lp289
I2
aI53
aI60800000
aI61960000
aa(lp290
I2
aI54
aI62000000
aI62520000
aa(lp291
I2
aI55
aI62520000
aI63640000
aa(lp292
I2
aI56
aI63680000
aI63960000
aa(lp293
I2
aI57
aI64080000
aI65680000
aa(lp294
I2
aI58
aI65680000
aI68160000
aa(lp295
I2
aI59
aI68200000
aI69000000
aa(lp296
I2
aI60
aI69000000
aI69440000
aa(lp297
I2
aI61
aI69520000
aI69960000
aa(lp298
I2
aI62
aI69960000
aI70360000
aa(lp299
I2
aI63
aI70360000
aI73680000
aa(lp300
I2
aI64
aI73840000
aI74520000
aa(lp301
I2
aI65
aI74720000
aI74960000
aa(lp302
I2
aI66
aI74960000
aI75800000
aa(lp303
I2
aI67
aI75800000
aI79960000
aa(lp304
I2
aI68
aI80000000
aI84440000
aa(lp305
I2
aI69
aI84520000
aI85400000
aa(lp306
I2
aI70
aI85400000
aI85720000
aa(lp307
I2
aI71
aI85720000
aI85920000
aa(lp308
I2
aI72
aI85920000
aI86280000
aa(lp309
I2
aI73
aI86280000
aI87000000
aa(lp310
I2
aI74
aI88080000
aI89120000
aa(lp311
I2
aI75
aI89280000
aI91560000
aa(lp312
I2
aI76
aI94720000
aI95800000
aa(lp313
I2
aI77
aI95840000
aI97520000
aa(lp314
I2
aI78
aI97520000
aI98400000
aa(lp315
I2
aI79
aI98600000
aI99120000
aa(lp316
I2
aI80
aI99320000
aI100560000
aa(lp317
I2
aI81
aI100560000
aI101240000
aa(lp318
I2
aI82
aI101240000
aI101880000
aa(lp319
I2
aI83
aI101960000
aI102680000
aa(lp320
I2
aI84
aI102800000
aI104840000
aa(lp321
I2
aI85
aI105000000
aI106600000
aa(lp322
I2
aI86
aI106600000
aI108200000
aa(lp323
I2
aI87
aI108200000
aI109840000
aa(lp324
I2
aI88
aI110160000
aI110360000
aa(lp325
I2
aI89
aI111080000
aI111840000
aa(lp326
I2
aI90
aI111960000
aI112200000
aa(lp327
I2
aI91
aI112280000
aI113880000
aa(lp328
I2
aI92
aI114120000
aI114440000
aa(lp329
I2
aI93
aI114440000
aI118200000
aa(lp330
I2
aI94
aI118280000
aI120040000
aa(lp331
I2
aI95
aI120120000
aI120680000
aa(lp332
I2
aI96
aI120680000
aI121160000
aa(lp333
I2
aI97
aI121160000
aI122240000
aa(lp334
I2
aI98
aI122280000
aI127480000
aa(lp335
I2
aI99
aI127480000
aI128480000
aa(lp336
I2
aI100
aI128600000
aI129240000
aa(lp337
I2
aI101
aI129240000
aI130520000
aa(lp338
I2
aI102
aI130640000
aI130920000
aa(lp339
I2
aI103
aI131200000
aI132360000
aa(lp340
I2
aI104
aI132720000
aI134360000
aa(lp341
I2
aI105
aI134360000
aI134960000
aa(lp342
I2
aI106
aI134960000
aI135400000
aa(lp343
I2
aI107
aI135400000
aI136360000
aa(lp344
I2
aI108
aI136960000
aI138320000
aa(lp345
I2
aI109
aI138360000
aI139320000
aa(lp346
I2
aI110
aI139440000
aI143480000
aa(lp347
I2
aI111
aI143520000
aI147160000
aa(lp348
I2
aI112
aI147200000
aI148400000
aa(lp349
I2
aI113
aI148400000
aI150120000
aa(lp350
I2
aI114
aI150120000
aI152040000
aa(lp351
I2
aI115
aI152080000
aI153280000
aa(lp352
I2
aI116
aI153320000
aI154080000
aa(lp353
I2
aI117
aI155880000
aI157880000
aa(lp354
I2
aI118
aI158000000
aI159400000
aa(lp355
I2
aI119
aI159440000
aI160400000
aa(lp356
I2
aI120
aI160600000
aI161840000
aa(lp357
I2
aI121
aI162000000
aI162920000
aa(lp358
I2
aI122
aI163640000
aI165200000
aa(lp359
I2
aI123
aI165280000
aI165840000
aa(lp360
I2
aI124
aI165960000
aI166480000
aa(lp361
I2
aI125
aI166720000
aI169560000
aa(lp362
I2
aI126
aI169920000
aI171480000
aa(lp363
I2
aI127
aI171480000
aI172000000
aa(lp364
I2
aI128
aI172120000
aI172720000
aa(lp365
I2
aI129
aI172720000
aI173120000
aa(lp366
I2
aI130
aI173160000
aI173800000
aa(lp367
I2
aI131
aI173800000
aI175000000
aa(lp368
I2
aI132
aI175280000
aI175760000
aa(lp369
I2
aI133
aI175760000
aI176680000
aa(lp370
I2
aI134
aI176680000
aI177720000
aa(lp371
I2
aI135
aI177720000
aI178440000
aa(lp372
I2
aI136
aI178680000
aI179040000
aa(lp373
I2
aI137
aI179320000
aI180440000
aa(lp374
I2
aI138
aI180640000
aI182720000
aa(lp375
I2
aI139
aI182720000
aI183680000
aa(lp376
I2
aI140
aI183800000
aI187040000
aa(lp377
I2
aI141
aI187040000
aI188040000
aa(lp378
I2
aI142
aI188040000
aI189080000
aa(lp379
I2
aI143
aI189080000
aI190240000
aa(lp380
I2
aI144
aI190240000
aI191600000
aa(lp381
I2
aI145
aI191600000
aI192120000
aa(lp382
I2
aI146
aI192120000
aI192880000
aa(lp383
I2
aI147
aI192880000
aI195880000
aa(lp384
I2
aI148
aI195880000
aI196640000
aa(lp385
I2
aI149
aI196640000
aI197360000
aa(lp386
I2
aI150
aI197360000
aI198080000
aa(lp387
I2
aI151
aI198360000
aI200520000
aa(lp388
I2
aI152
aI200560000
aI201080000
aa(lp389
I2
aI153
aI201120000
aI201440000
aa(lp390
I2
aI154
aI201440000
aI202280000
aa(lp391
I2
aI155
aI202320000
aI203120000
aa(lp392
I2
aI156
aI203120000
aI204520000
aa(lp393
I2
aI157
aI204560000
aI206720000
aa(lp394
I2
aI158
aI206720000
aI208920000
aa(lp395
I2
aI159
aI208960000
aI210880000
aa(lp396
I2
aI160
aI211120000
aI213160000
aa(lp397
I2
aI161
aI213200000
aI215880000
aa(lp398
I2
aI162
aI215880000
aI216640000
aa(lp399
I2
aI163
aI216680000
aI218800000
aa(lp400
I2
aI164
aI218840000
aI219960000
aa(lp401
I2
aI165
aI220200000
aI223160000
aa(lp402
I2
aI166
aI223200000
aI224520000
aa(lp403
I2
aI167
aI224520000
aI225320000
aa(lp404
I2
aI168
aI225360000
aI226200000
aa(lp405
I2
aI169
aI226240000
aI227720000
aa(lp406
I2
aI170
aI227880000
aI230320000
aa(lp407
I2
aI171
aI230320000
aI231400000
aa(lp408
I2
aI172
aI231440000
aI231600000
aa(lp409
I2
aI173
aI231640000
aI232040000
aa(lp410
I2
aI174
aI232360000
aI233120000
aa(lp411
I2
aI175
aI233160000
aI233840000
aa(lp412
I2
aI176
aI234040000
aI234400000
aa(lp413
I2
aI177
aI234440000
aI235120000
aa(lp414
I2
aI178
aI235120000
aI235720000
aa(lp415
I2
aI179
aI235720000
aI236320000
aa(lp416
I2
aI180
aI236360000
aI236840000
aa(lp417
I2
aI181
aI236880000
aI237640000
aa(lp418
I2
aI182
aI237640000
aI238360000
aa(lp419
I2
aI183
aI238360000
aI238880000
aa(lp420
I2
aI184
aI238880000
aI239600000
aa(lp421
I2
aI185
aI239600000
aI240760000
aa(lp422
I2
aI186
aI240760000
aI241400000
aa(lp423
I2
aI187
aI241400000
aI242720000
aa(lp424
I3
aI1
aI0
aI3200000
aa(lp425
I3
aI2
aI3240000
aI4240000
aa(lp426
I3
aI3
aI4320000
aI5240000
aa(lp427
I3
aI4
aI5320000
aI8440000
aa(lp428
I3
aI5
aI8440000
aI9360000
aa(lp429
I3
aI6
aI9360000
aI10320000
aa(lp430
I3
aI7
aI10320000
aI10760000
aa(lp431
I3
aI8
aI11080000
aI11360000
aa(lp432
I3
aI9
aI11360000
aI11880000
aa(lp433
I3
aI10
aI12120000
aI12920000
aa(lp434
I3
aI11
aI13000000
aI13680000
aa(lp435
I3
aI12
aI13720000
aI15120000
aa(lp436
I3
aI13
aI15120000
aI15560000
aa(lp437
I3
aI14
aI15600000
aI16280000
aa(lp438
I3
aI15
aI16280000
aI16600000
aa(lp439
I3
aI16
aI16600000
aI17280000
aa(lp440
I3
aI17
aI17440000
aI18480000
aa(lp441
I3
aI18
aI20320000
aI22200000
aa(lp442
I3
aI19
aI22880000
aI24000000
aa(lp443
I3
aI20
aI24000000
aI24720000
aa(lp444
I3
aI21
aI24840000
aI25600000
aa(lp445
I3
aI22
aI25640000
aI27040000
aa(lp446
I3
aI23
aI27120000
aI28400000
aa(lp447
I3
aI24
aI28640000
aI30000000
aa(lp448
I3
aI25
aI30040000
aI30760000
aa(lp449
I3
aI26
aI30800000
aI32280000
aa(lp450
I3
aI27
aI32520000
aI32720000
aa(lp451
I3
aI28
aI33120000
aI33840000
aa(lp452
I3
aI29
aI33880000
aI36720000
aa(lp453
I3
aI30
aI37000000
aI37360000
aa(lp454
I3
aI31
aI37440000
aI39400000
aa(lp455
I3
aI32
aI39440000
aI42560000
aa(lp456
I3
aI33
aI42600000
aI44320000
aa(lp457
I3
aI34
aI44520000
aI45520000
aa(lp458
I3
aI35
aI45520000
aI45720000
aa(lp459
I3
aI36
aI45760000
aI46680000
aa(lp460
I3
aI37
aI46920000
aI47400000
aa(lp461
I3
aI38
aI47440000
aI47800000
aa(lp462
I3
aI39
aI47840000
aI48200000
aa(lp463
I3
aI40
aI48200000
aI49040000
aa(lp464
I3
aI41
aI49120000
aI50320000
aa(lp465
I3
aI42
aI50360000
aI51400000
aa(lp466
I3
aI43
aI51480000
aI51920000
aa(lp467
I3
aI44
aI51920000
aI52720000
aa(lp468
I3
aI45
aI52720000
aI53280000
aa(lp469
I3
aI46
aI53360000
aI56560000
aa(lp470
I3
aI47
aI56600000
aI57000000
aa(lp471
I3
aI48
aI57520000
aI58440000
aa(lp472
I3
aI49
aI58520000
aI61160000
aa(lp473
I3
aI50
aI61520000
aI62240000
aa(lp474
I3
aI51
aI62560000
aI63240000
aa(lp475
I3
aI52
aI63280000
aI63800000
aa(lp476
I3
aI53
aI63800000
aI64480000
aa(lp477
I3
aI54
aI64480000
aI65280000
aa(lp478
I3
aI55
aI65360000
aI65720000
aa(lp479
I3
aI56
aI65720000
aI66120000
aa(lp480
I3
aI57
aI66360000
aI67000000
aa(lp481
I3
aI58
aI67040000
aI69120000
aa(lp482
I3
aI59
aI69120000
aI70120000
aa(lp483
I3
aI60
aI70200000
aI71840000
aa(lp484
I3
aI61
aI71840000
aI73240000
aa(lp485
I3
aI62
aI73240000
aI74000000
aa(lp486
I3
aI63
aI74400000
aI75320000
aa(lp487
I3
aI64
aI75360000
aI75720000
aa(lp488
I3
aI65
aI75880000
aI76800000
aa(lp489
I3
aI66
aI77120000
aI78760000
aa(lp490
I3
aI67
aI78800000
aI79680000
aa(lp491
I3
aI68
aI79720000
aI82320000
aa(lp492
I3
aI69
aI86760000
aI87320000
aa(lp493
I3
aI70
aI87400000
aI88320000
aa(lp494
I3
aI71
aI88320000
aI90600000
aa(lp495
I3
aI72
aI94960000
aI98920000
aa(lp496
I3
aI73
aI98960000
aI99680000
aa(lp497
I3
aI74
aI99760000
aI101000000
aa(lp498
I3
aI75
aI101000000
aI101480000
aa(lp499
I3
aI76
aI101600000
aI102920000
aa(lp500
I3
aI77
aI102920000
aI103440000
aa(lp501
I3
aI78
aI103440000
aI105320000
aa(lp502
I3
aI79
aI105440000
aI106600000
aa(lp503
I3
aI80
aI106760000
aI108360000
aa(lp504
I3
aI81
aI108400000
aI109800000
aa(lp505
I3
aI82
aI109840000
aI112760000
aa(lp506
I3
aI83
aI112920000
aI113280000
aa(lp507
I3
aI84
aI113320000
aI113720000
aa(lp508
I3
aI85
aI113760000
aI114240000
aa(lp509
I3
aI86
aI114240000
aI114880000
aa(lp510
I3
aI87
aI115480000
aI116360000
aa(lp511
I3
aI88
aI116400000
aI117040000
aa(lp512
I3
aI89
aI117080000
aI120040000
aa(lp513
I3
aI90
aI120320000
aI121400000
aa(lp514
I3
aI91
aI121760000
aI122600000
aa(lp515
I3
aI92
aI122720000
aI123560000
aa(lp516
I3
aI93
aI123600000
aI124480000
aa(lp517
I3
aI94
aI124520000
aI124800000
aa(lp518
I3
aI95
aI124800000
aI125760000
aa(lp519
I3
aI96
aI125960000
aI126800000
aa(lp520
I3
aI97
aI126960000
aI128760000
aa(lp521
I3
aI98
aI128800000
aI129280000
aa(lp522
I3
aI99
aI129280000
aI129840000
aa(lp523
I3
aI100
aI129840000
aI130080000
aa(lp524
I3
aI101
aI130120000
aI130480000
aa(lp525
I3
aI102
aI130520000
aI131320000
aa(lp526
I3
aI103
aI131320000
aI133600000
aa(lp527
I3
aI104
aI133600000
aI133920000
aa(lp528
I3
aI105
aI133920000
aI134880000
aa(lp529
I3
aI106
aI135120000
aI135760000
aa(lp530
I3
aI107
aI135760000
aI137280000
aa(lp531
I3
aI108
aI137280000
aI138240000
aa(lp532
I3
aI109
aI138240000
aI139200000
aa(lp533
I3
aI110
aI139240000
aI140160000
aa(lp534
I3
aI111
aI140240000
aI140600000
aa(lp535
I3
aI112
aI140600000
aI142400000
aa(lp536
I3
aI113
aI142440000
aI143720000
aa(lp537
I3
aI114
aI143800000
aI144200000
aa(lp538
I3
aI115
aI144240000
aI144920000
aa(lp539
I3
aI116
aI145000000
aI146920000
aa(lp540
I3
aI117
aI147200000
aI147800000
aa(lp541
I3
aI118
aI147840000
aI150040000
aa(lp542
I3
aI119
aI150160000
aI151040000
aa(lp543
I3
aI120
aI151080000
aI151760000
aa(lp544
I3
aI121
aI151840000
aI153120000
aa(lp545
I3
aI122
aI153240000
aI153800000
aa(lp546
I3
aI123
aI154040000
aI155480000
aa(lp547
I3
aI124
aI155520000
aI156960000
aa(lp548
I3
aI125
aI157200000
aI158360000
aa(lp549
I3
aI126
aI158360000
aI158720000
aa(lp550
I3
aI127
aI158760000
aI160000000
aa(lp551
I3
aI128
aI160040000
aI162680000
aa(lp552
I3
aI129
aI162720000
aI166280000
aa(lp553
I3
aI130
aI167080000
aI168880000
aa(lp554
I3
aI131
aI169120000
aI170040000
aa(lp555
I3
aI132
aI170080000
aI170960000
aa(lp556
I3
aI133
aI171000000
aI172080000
aa(lp557
I3
aI134
aI172080000
aI172800000
aa(lp558
I3
aI135
aI172840000
aI174000000
aa(lp559
I3
aI136
aI174000000
aI177680000
aa(lp560
I3
aI137
aI178120000
aI179600000
aa(lp561
I3
aI138
aI179640000
aI180200000
aa(lp562
I3
aI139
aI180200000
aI180800000
aa(lp563
I3
aI140
aI180960000
aI183920000
aa(lp564
I3
aI141
aI184080000
aI184600000
aa(lp565
I3
aI142
aI184640000
aI185520000
aa(lp566
I3
aI143
aI185560000
aI186040000
aa(lp567
I3
aI144
aI186040000
aI186800000
aa(lp568
I3
aI145
aI186840000
aI187120000
aa(lp569
I3
aI146
aI187160000
aI187800000
aa(lp570
I3
aI147
aI188400000
aI188920000
aa(lp571
I3
aI148
aI188920000
aI190440000
aa(lp572
I3
aI149
aI190440000
aI191920000
aa(lp573
I3
aI150
aI191960000
aI192600000
aa(lp574
I3
aI151
aI192640000
aI193680000
aa(lp575
I3
aI152
aI193720000
aI194800000
aa(lp576
I3
aI153
aI194840000
aI195520000
aa(lp577
I3
aI154
aI195520000
aI195840000
aa(lp578
I3
aI155
aI195840000
aI196480000
aa(lp579
I3
aI156
aI196480000
aI196840000
aa(lp580
I3
aI157
aI196880000
aI197200000
aa(lp581
I3
aI158
aI197200000
aI198160000
aa(lp582
I3
aI159
aI198200000
aI199320000
aa(lp583
I4
aI1
aI0
aI480000
aa(lp584
I4
aI2
aI640000
aI1640000
aa(lp585
I4
aI3
aI1640000
aI3040000
aa(lp586
I4
aI4
aI3040000
aI3480000
aa(lp587
I4
aI5
aI3480000
aI4040000
aa(lp588
I4
aI6
aI4040000
aI4960000
aa(lp589
I4
aI7
aI5040000
aI6600000
aa(lp590
I4
aI8
aI6640000
aI7160000
aa(lp591
I4
aI9
aI7160000
aI8680000
aa(lp592
I4
aI10
aI8960000
aI12280000
aa(lp593
I4
aI11
aI12320000
aI13160000
aa(lp594
I4
aI12
aI13200000
aI14840000
aa(lp595
I4
aI13
aI14840000
aI15080000
aa(lp596
I4
aI14
aI15080000
aI17120000
aa(lp597
I4
aI15
aI17240000
aI18240000
aa(lp598
I4
aI16
aI18240000
aI20360000
aa(lp599
I4
aI17
aI20360000
aI22400000
aa(lp600
I4
aI18
aI22680000
aI24080000
aa(lp601
I4
aI19
aI24080000
aI25000000
aa(lp602
I4
aI20
aI25000000
aI25360000
aa(lp603
I4
aI21
aI25520000
aI26600000
aa(lp604
I4
aI22
aI26720000
aI30160000
aa(lp605
I4
aI23
aI30280000
aI31000000
aa(lp606
I4
aI24
aI32640000
aI37040000
aa(lp607
I4
aI25
aI37200000
aI38440000
aa(lp608
I4
aI26
aI38560000
aI38840000
aa(lp609
I4
aI27
aI38880000
aI39680000
aa(lp610
I4
aI28
aI39720000
aI40600000
aa(lp611
I4
aI29
aI40600000
aI40960000
aa(lp612
I4
aI30
aI40960000
aI42240000
aa(lp613
I4
aI31
aI42600000
aI44400000
aa(lp614
I4
aI32
aI44440000
aI46440000
aa(lp615
I4
aI33
aI46520000
aI48920000
aa(lp616
I4
aI34
aI52360000
aI53560000
aa(lp617
I4
aI35
aI53560000
aI54800000
aa(lp618
I4
aI36
aI54800000
aI55520000
aa(lp619
I4
aI37
aI55520000
aI56920000
aa(lp620
I4
aI38
aI56960000
aI57720000
aa(lp621
I4
aI39
aI57800000
aI60520000
aa(lp622
I4
aI40
aI60800000
aI65120000
aa(lp623
I4
aI41
aI65280000
aI68920000
aa(lp624
I4
aI42
aI69600000
aI70120000
aa(lp625
I4
aI43
aI71480000
aI72880000
aa(lp626
I4
aI44
aI73360000
aI74120000
aa(lp627
I4
aI45
aI74160000
aI75240000
aa(lp628
I4
aI46
aI75400000
aI75920000
aa(lp629
I4
aI47
aI75960000
aI76680000
aa(lp630
I4
aI48
aI76760000
aI77040000
aa(lp631
I4
aI49
aI77120000
aI78360000
aa(lp632
I4
aI50
aI78520000
aI80080000
aa(lp633
I4
aI51
aI80080000
aI81480000
aa(lp634
I4
aI52
aI81480000
aI82520000
aa(lp635
I4
aI53
aI82560000
aI83440000
aa(lp636
I4
aI54
aI83480000
aI83960000
aa(lp637
I4
aI55
aI83960000
aI84600000
aa(lp638
I4
aI56
aI84600000
aI85680000
aa(lp639
I4
aI57
aI85800000
aI86160000
aa(lp640
I4
aI58
aI86200000
aI87200000
aa(lp641
I4
aI59
aI87600000
aI88640000
aa(lp642
I4
aI60
aI88720000
aI89680000
aa(lp643
I4
aI61
aI89680000
aI91120000
aa(lp644
I4
aI62
aI91320000
aI93560000
aa(lp645
I4
aI63
aI93800000
aI95320000
aa(lp646
I4
aI64
aI95360000
aI95760000
aa(lp647
I4
aI65
aI95760000
aI96280000
aa(lp648
I4
aI66
aI96280000
aI99160000
aa(lp649
I4
aI67
aI99240000
aI100240000
aa(lp650
I4
aI68
aI100240000
aI100640000
aa(lp651
I4
aI69
aI100680000
aI100960000
aa(lp652
I4
aI70
aI101080000
aI103480000
aa(lp653
I4
aI71
aI103560000
aI104360000
aa(lp654
I4
aI72
aI104360000
aI106680000
aa(lp655
I4
aI73
aI107480000
aI109080000
aa(lp656
I4
aI74
aI109080000
aI109760000
aa(lp657
I4
aI75
aI109800000
aI110560000
aa(lp658
I4
aI76
aI110560000
aI111120000
aa(lp659
I4
aI77
aI111120000
aI111720000
aa(lp660
I4
aI78
aI111720000
aI113200000
aa(lp661
I4
aI79
aI113200000
aI114120000
aa(lp662
I4
aI80
aI114200000
aI115960000
aa(lp663
I4
aI81
aI116040000
aI118040000
aa(lp664
I4
aI82
aI118200000
aI119440000
aa(lp665
I4
aI83
aI119440000
aI120640000
aa(lp666
I4
aI84
aI120760000
aI121200000
aa(lp667
I4
aI85
aI121200000
aI122800000
aa(lp668
I4
aI86
aI123000000
aI123720000
aa(lp669
I4
aI87
aI123720000
aI124080000
aa(lp670
I4
aI88
aI124120000
aI125440000
aa(lp671
I4
aI89
aI125440000
aI126440000
aa(lp672
I4
aI90
aI126440000
aI128920000
aa(lp673
I4
aI91
aI128920000
aI130400000
aa(lp674
I4
aI92
aI130520000
aI134160000
aa(lp675
I4
aI93
aI134240000
aI138080000
aa(lp676
I4
aI94
aI138160000
aI140160000
aa(lp677
I4
aI95
aI140160000
aI140560000
aa(lp678
I4
aI96
aI140680000
aI141520000
aa(lp679
I4
aI97
aI141520000
aI142280000
aa(lp680
I4
aI98
aI142280000
aI144720000
aa(lp681
I4
aI99
aI144760000
aI146240000
aa(lp682
I4
aI100
aI146280000
aI146760000
aa(lp683
I4
aI101
aI146760000
aI147080000
aa(lp684
I4
aI102
aI147360000
aI148160000
aa(lp685
I4
aI103
aI148240000
aI149040000
aa(lp686
I4
aI104
aI149040000
aI151080000
aa(lp687
I4
aI105
aI151080000
aI151400000
aa(lp688
I4
aI106
aI151400000
aI152160000
aa(lp689
I4
aI107
aI152200000
aI153920000
aa(lp690
I4
aI108
aI153960000
aI154280000
aa(lp691
I4
aI109
aI154280000
aI155520000
aa(lp692
I4
aI110
aI155680000
aI156480000
aa(lp693
I4
aI111
aI156480000
aI156920000
aa(lp694
I4
aI112
aI157080000
aI159360000
aa(lp695
I4
aI113
aI159360000
aI159800000
aa(lp696
I4
aI114
aI159800000
aI160640000
aa(lp697
I4
aI115
aI160640000
aI163520000
aa(lp698
I4
aI116
aI164120000
aI166240000
aa(lp699
I4
aI117
aI166240000
aI166640000
aa(lp700
I4
aI118
aI168160000
aI169240000
aa(lp701
I4
aI119
aI169360000
aI170080000
aa(lp702
I4
aI120
aI170160000
aI170920000
aa(lp703
I4
aI121
aI170920000
aI171240000
aa(lp704
I4
aI122
aI171280000
aI174000000
aa(lp705
I4
aI123
aI174160000
aI174440000
aa(lp706
I4
aI124
aI174640000
aI175480000
aa(lp707
I4
aI125
aI175520000
aI177080000
aa(lp708
I4
aI126
aI177160000
aI178720000
aa(lp709
I4
aI127
aI178760000
aI181760000
aa(lp710
I4
aI128
aI181800000
aI184600000
aa(lp711
I4
aI129
aI184600000
aI185320000
aa(lp712
I4
aI130
aI185400000
aI186320000
aa(lp713
I4
aI131
aI186320000
aI186760000
aa(lp714
I4
aI132
aI186800000
aI187360000
aa(lp715
I4
aI133
aI187440000
aI191273063
aa(lp716
I5
aI1
aI40000
aI1720000
aa(lp717
I5
aI2
aI1760000
aI4960000
aa(lp718
I5
aI3
aI5160000
aI5480000
aa(lp719
I5
aI4
aI5480000
aI7920000
aa(lp720
I5
aI5
aI7920000
aI9600000
aa(lp721
I5
aI6
aI9600000
aI10480000
aa(lp722
I5
aI7
aI10480000
aI10960000
aa(lp723
I5
aI8
aI11440000
aI14000000
aa(lp724
I5
aI9
aI14080000
aI14720000
aa(lp725
I5
aI10
aI14720000
aI15080000
aa(lp726
I5
aI11
aI15080000
aI16160000
aa(lp727
I5
aI12
aI16480000
aI17280000
aa(lp728
I5
aI13
aI17280000
aI18440000
aa(lp729
I5
aI14
aI18520000
aI21880000
aa(lp730
I5
aI15
aI21880000
aI23280000
aa(lp731
I5
aI16
aI26480000
aI28600000
aa(lp732
I5
aI17
aI30400000
aI31560000
aa(lp733
I5
aI18
aI31560000
aI32160000
aa(lp734
I5
aI19
aI32160000
aI33480000
aa(lp735
I5
aI20
aI33480000
aI34520000
aa(lp736
I5
aI21
aI34520000
aI34960000
aa(lp737
I5
aI22
aI34960000
aI36080000
aa(lp738
I5
aI23
aI36200000
aI36920000
aa(lp739
I5
aI24
aI37080000
aI38400000
aa(lp740
I5
aI25
aI38400000
aI38960000
aa(lp741
I5
aI26
aI39000000
aI39600000
aa(lp742
I5
aI27
aI39600000
aI40920000
aa(lp743
I5
aI28
aI40920000
aI41880000
aa(lp744
I5
aI29
aI42120000
aI42720000
aa(lp745
I5
aI30
aI42920000
aI43560000
aa(lp746
I5
aI31
aI43680000
aI46480000
aa(lp747
I5
aI32
aI49440000
aI52000000
aa(lp748
I5
aI33
aI52000000
aI53800000
aa(lp749
I5
aI34
aI53840000
aI54520000
aa(lp750
I5
aI35
aI54520000
aI55240000
aa(lp751
I5
aI36
aI55240000
aI55560000
aa(lp752
I5
aI37
aI55600000
aI56240000
aa(lp753
I5
aI38
aI56240000
aI56600000
aa(lp754
I5
aI39
aI56600000
aI57840000
aa(lp755
I5
aI40
aI58080000
aI61520000
aa(lp756
I5
aI41
aI61720000
aI63960000
aa(lp757
I5
aI42
aI63960000
aI64920000
aa(lp758
I5
aI43
aI64920000
aI65520000
aa(lp759
I5
aI44
aI65560000
aI68400000
aa(lp760
I5
aI45
aI68400000
aI70360000
aa(lp761
I5
aI46
aI70680000
aI71640000
aa(lp762
I5
aI47
aI71640000
aI72240000
aa(lp763
I5
aI48
aI72240000
aI72880000
aa(lp764
I5
aI49
aI72880000
aI73160000
aa(lp765
I5
aI50
aI73200000
aI74000000
aa(lp766
I5
aI51
aI74080000
aI75600000
aa(lp767
I5
aI52
aI75680000
aI75880000
aa(lp768
I5
aI53
aI75920000
aI76400000
aa(lp769
I5
aI54
aI76440000
aI76840000
aa(lp770
I5
aI55
aI77000000
aI77600000
aa(lp771
I5
aI56
aI77640000
aI78320000
aa(lp772
I5
aI57
aI78320000
aI79960000
aa(lp773
I5
aI58
aI80000000
aI80640000
aa(lp774
I5
aI59
aI80640000
aI81600000
aa(lp775
I5
aI60
aI81600000
aI82960000
aa(lp776
I5
aI61
aI83000000
aI83800000
aa(lp777
I5
aI62
aI84520000
aI86160000
aa(lp778
I5
aI63
aI86360000
aI86760000
aa(lp779
I5
aI64
aI87000000
aI88040000
aa(lp780
I5
aI65
aI88040000
aI90160000
aa(lp781
I5
aI66
aI90160000
aI90840000
aa(lp782
I5
aI67
aI90840000
aI94800000
aa(lp783
I5
aI68
aI94840000
aI95720000
aa(lp784
I5
aI69
aI95720000
aI96120000
aa(lp785
I5
aI70
aI96120000
aI96520000
aa(lp786
I5
aI71
aI96520000
aI98440000
aa(lp787
I5
aI72
aI98440000
aI101800000
aa(lp788
I5
aI73
aI101880000
aI102920000
aa(lp789
I5
aI74
aI102960000
aI107760000
aa(lp790
I5
aI75
aI107760000
aI108880000
aa(lp791
I5
aI76
aI108880000
aI110080000
aa(lp792
I5
aI77
aI110080000
aI110480000
aa(lp793
I5
aI78
aI110480000
aI111560000
aa(lp794
I5
aI79
aI111880000
aI112960000
aa(lp795
I5
aI80
aI113000000
aI114560000
aa(lp796
I5
aI81
aI114640000
aI115000000
aa(lp797
I5
aI82
aI115000000
aI115440000
aa(lp798
I5
aI83
aI115480000
aI118320000
aa(lp799
I5
aI84
aI118320000
aI118800000
aa(lp800
I5
aI85
aI118840000
aI121320000
aa(lp801
I5
aI86
aI121320000
aI121840000
aa(lp802
I5
aI87
aI121840000
aI122960000
aa(lp803
I5
aI88
aI123000000
aI125680000
aa(lp804
I5
aI89
aI125680000
aI125960000
aa(lp805
I5
aI90
aI126000000
aI126880000
aa(lp806
I5
aI91
aI126880000
aI127560000
aa(lp807
I5
aI92
aI127560000
aI128240000
aa(lp808
I5
aI93
aI129240000
aI130480000
aa(lp809
I5
aI94
aI130520000
aI130760000
aa(lp810
I5
aI95
aI130800000
aI131400000
aa(lp811
I5
aI96
aI131720000
aI132440000
aa(lp812
I5
aI97
aI132440000
aI133400000
aa(lp813
I5
aI98
aI133400000
aI134280000
aa(lp814
I5
aI99
aI134280000
aI134800000
aa(lp815
I5
aI100
aI134800000
aI135560000
aa(lp816
I5
aI101
aI135560000
aI137520000
aa(lp817
I5
aI102
aI137520000
aI138760000
aa(lp818
I5
aI103
aI138760000
aI139120000
aa(lp819
I5
aI104
aI139160000
aI139560000
aa(lp820
I5
aI105
aI139560000
aI140080000
aa(lp821
I5
aI106
aI140080000
aI140680000
aa(lp822
I5
aI107
aI140680000
aI141000000
aa(lp823
I5
aI108
aI141000000
aI141320000
aa(lp824
I5
aI109
aI141320000
aI142080000
aa(lp825
I5
aI110
aI142080000
aI142240000
aa(lp826
I5
aI111
aI142240000
aI143560000
aa(lp827
I5
aI112
aI143560000
aI145840000
aa(lp828
I5
aI113
aI145840000
aI148080000
aa(lp829
I5
aI114
aI148080000
aI148640000
aa(lp830
I5
aI115
aI148640000
aI149360000
aa(lp831
I5
aI116
aI149360000
aI150560000
aa(lp832
I5
aI117
aI150600000
aI151160000
aa(lp833
I5
aI118
aI151160000
aI153320000
aa(lp834
I5
aI119
aI153400000
aI154320000
aa(lp835
I5
aI120
aI154320000
aI156600000
aa(lp836
I5
aI121
aI156600000
aI157120000
aa(lp837
I5
aI122
aI157120000
aI158520000
aa(lp838
I5
aI123
aI158520000
aI159360000
aa(lp839
I5
aI124
aI159360000
aI159800000
aa(lp840
I5
aI125
aI159800000
aI162800000
aa(lp841
I5
aI126
aI162800000
aI166920000
aa(lp842
I5
aI127
aI166920000
aI167600000
aa(lp843
I5
aI128
aI167600000
aI167920000
aa(lp844
I5
aI129
aI167920000
aI168920000
aa(lp845
I5
aI130
aI168920000
aI170040000
aa(lp846
I5
aI131
aI170080000
aI170720000
aa(lp847
I5
aI132
aI170760000
aI171280000
aa(lp848
I5
aI133
aI171280000
aI171440000
aa(lp849
I5
aI134
aI171440000
aI171720000
aa(lp850
I5
aI135
aI171800000
aI172320000
aa(lp851
I5
aI136
aI172320000
aI172640000
aa(lp852
I5
aI137
aI172640000
aI172960000
aa(lp853
I5
aI138
aI173000000
aI173360000
aa(lp854
I5
aI139
aI173360000
aI174160000
aa(lp855
I5
aI140
aI174320000
aI175720000
aa(lp856
I5
aI141
aI175760000
aI176360000
aa(lp857
I5
aI142
aI176440000
aI177200000
aa(lp858
I5
aI143
aI177240000
aI178480000
aa(lp859
I5
aI144
aI178480000
aI179280000
aa(lp860
I5
aI145
aI179280000
aI180680000
aa(lp861
I6
aI1
aI80000
aI1400000
aa(lp862
I6
aI2
aI1480000
aI2680000
aa(lp863
I6
aI3
aI2720000
aI3000000
aa(lp864
I6
aI4
aI3040000
aI3960000
aa(lp865
I6
aI5
aI4000000
aI5360000
aa(lp866
I6
aI6
aI5360000
aI6560000
aa(lp867
I6
aI7
aI6600000
aI8040000
aa(lp868
I6
aI8
aI8200000
aI10560000
aa(lp869
I6
aI9
aI10920000
aI11640000
aa(lp870
I6
aI10
aI11680000
aI12760000
aa(lp871
I6
aI11
aI13440000
aI13720000
aa(lp872
I6
aI12
aI13880000
aI15760000
aa(lp873
I6
aI13
aI15800000
aI16320000
aa(lp874
I6
aI14
aI16400000
aI16880000
aa(lp875
I6
aI15
aI16880000
aI17240000
aa(lp876
I6
aI16
aI17240000
aI18640000
aa(lp877
I6
aI17
aI18640000
aI20200000
aa(lp878
I6
aI18
aI20320000
aI21680000
aa(lp879
I6
aI19
aI21680000
aI24480000
aa(lp880
I6
aI20
aI24480000
aI25200000
aa(lp881
I6
aI21
aI25320000
aI26080000
aa(lp882
I6
aI22
aI26120000
aI26680000
aa(lp883
I6
aI23
aI26720000
aI28000000
aa(lp884
I6
aI24
aI28160000
aI30280000
aa(lp885
I6
aI25
aI30280000
aI31560000
aa(lp886
I6
aI26
aI31720000
aI32080000
aa(lp887
I6
aI27
aI32280000
aI33360000
aa(lp888
I6
aI28
aI33360000
aI34240000
aa(lp889
I6
aI29
aI34240000
aI35560000
aa(lp890
I6
aI30
aI35560000
aI36440000
aa(lp891
I6
aI31
aI36680000
aI37360000
aa(lp892
I6
aI32
aI37400000
aI38800000
aa(lp893
I6
aI33
aI38800000
aI41400000
aa(lp894
I6
aI34
aI41440000
aI41800000
aa(lp895
I6
aI35
aI41800000
aI42120000
aa(lp896
I6
aI36
aI42120000
aI42640000
aa(lp897
I6
aI37
aI42640000
aI43240000
aa(lp898
I6
aI38
aI43320000
aI43680000
aa(lp899
I6
aI39
aI43720000
aI44440000
aa(lp900
I6
aI40
aI44480000
aI46720000
aa(lp901
I6
aI41
aI47120000
aI47440000
aa(lp902
I6
aI42
aI47480000
aI49600000
aa(lp903
I6
aI43
aI50000000
aI52000000
aa(lp904
I6
aI44
aI52240000
aI53040000
aa(lp905
I6
aI45
aI53080000
aI53680000
aa(lp906
I6
aI46
aI53960000
aI56280000
aa(lp907
I6
aI47
aI56280000
aI56560000
aa(lp908
I6
aI48
aI56600000
aI57280000
aa(lp909
I6
aI49
aI57280000
aI58920000
aa(lp910
I6
aI50
aI61920000
aI64600000
aa(lp911
I6
aI51
aI64720000
aI70920000
aa(lp912
I6
aI52
aI70960000
aI71720000
aa(lp913
I6
aI53
aI71920000
aI72880000
aa(lp914
I6
aI54
aI72960000
aI74160000
aa(lp915
I6
aI55
aI74200000
aI76560000
aa(lp916
I6
aI56
aI76640000
aI80600000
aa(lp917
I6
aI57
aI80680000
aI83000000
aa(lp918
I6
aI58
aI83000000
aI84360000
aa(lp919
I6
aI59
aI84360000
aI85000000
aa(lp920
I6
aI60
aI85080000
aI86120000
aa(lp921
I6
aI61
aI86120000
aI86320000
aa(lp922
I6
aI62
aI86480000
aI87760000
aa(lp923
I6
aI63
aI87800000
aI89720000
aa(lp924
I6
aI64
aI89720000
aI90400000
aa(lp925
I6
aI65
aI90640000
aI91360000
aa(lp926
I6
aI66
aI91720000
aI95760000
aa(lp927
I6
aI67
aI95920000
aI97040000
aa(lp928
I6
aI68
aI97120000
aI99800000
aa(lp929
I6
aI69
aI99880000
aI100360000
aa(lp930
I6
aI70
aI100400000
aI101240000
aa(lp931
I6
aI71
aI101440000
aI105080000
aa(lp932
I6
aI72
aI105400000
aI106880000
aa(lp933
I6
aI73
aI106920000
aI107440000
aa(lp934
I6
aI74
aI107480000
aI108320000
aa(lp935
I6
aI75
aI108360000
aI108960000
aa(lp936
I6
aI76
aI108960000
aI109560000
aa(lp937
I6
aI77
aI109560000
aI109840000
aa(lp938
I6
aI78
aI109920000
aI110880000
aa(lp939
I6
aI79
aI110920000
aI111680000
aa(lp940
I6
aI80
aI111680000
aI112080000
aa(lp941
I6
aI81
aI112120000
aI112480000
aa(lp942
I6
aI82
aI112520000
aI114400000
aa(lp943
I6
aI83
aI114400000
aI116440000
aa(lp944
I6
aI84
aI116560000
aI117160000
aa(lp945
I6
aI85
aI117680000
aI118120000
aa(lp946
I6
aI86
aI118680000
aI119280000
aa(lp947
I6
aI87
aI119280000
aI121400000
aa(lp948
I6
aI88
aI121760000
aI122720000
aa(lp949
I6
aI89
aI122840000
aI126360000
aa(lp950
I6
aI90
aI126360000
aI127640000
aa(lp951
I6
aI91
aI128040000
aI129840000
aa(lp952
I6
aI92
aI129960000
aI130400000
aa(lp953
I6
aI93
aI130400000
aI131200000
aa(lp954
I6
aI94
aI131240000
aI132000000
aa(lp955
I6
aI95
aI132000000
aI132880000
aa(lp956
I6
aI96
aI132880000
aI133920000
aa(lp957
I6
aI97
aI133920000
aI134480000
aa(lp958
I6
aI98
aI134480000
aI135400000
aa(lp959
I6
aI99
aI135400000
aI135800000
aa(lp960
I6
aI100
aI135800000
aI137200000
aa(lp961
I6
aI101
aI137280000
aI138040000
aa(lp962
I6
aI102
aI138040000
aI139120000
aa(lp963
I6
aI103
aI139160000
aI142480000
aa(lp964
I6
aI104
aI142840000
aI143840000
aa(lp965
I6
aI105
aI143880000
aI144400000
aa(lp966
I6
aI106
aI144440000
aI144880000
aa(lp967
I6
aI107
aI144920000
aI146280000
aa(lp968
I6
aI108
aI146320000
aI147120000
aa(lp969
I6
aI109
aI147160000
aI147720000
aa(lp970
I6
aI110
aI147760000
aI148520000
aa(lp971
I6
aI111
aI148560000
aI148880000
aa(lp972
I6
aI112
aI148920000
aI149360000
aa(lp973
I6
aI113
aI149400000
aI150280000
aa(lp974
I6
aI114
aI150400000
aI151160000
aa(lp975
I6
aI115
aI151200000
aI151760000
aa(lp976
I6
aI116
aI151840000
aI153080000
aa(lp977
I6
aI117
aI153360000
aI154480000
aa(lp978
I6
aI118
aI154520000
aI155000000
aa(lp979
I6
aI119
aI155040000
aI155640000
aa(lp980
I6
aI120
aI155680000
aI157640000
aa(lp981
I6
aI121
aI157640000
aI158480000
aa(lp982
I6
aI122
aI158520000
aI159360000
aa(lp983
I6
aI123
aI159480000
aI160000000
aa(lp984
I6
aI124
aI160160000
aI160440000
aa(lp985
I6
aI125
aI160480000
aI160840000
aa(lp986
I6
aI126
aI160920000
aI161720000
aa(lp987
I6
aI127
aI161760000
aI165440000
aa(lp988
I6
aI128
aI165680000
aI166480000
aa(lp989
I6
aI129
aI166600000
aI167360000
aa(lp990
I6
aI130
aI167400000
aI169000000
aa(lp991
I6
aI131
aI169040000
aI170899992
aa(lp992
I7
aI1
aI120000
aI880000
aa(lp993
I7
aI2
aI920000
aI1480000
aa(lp994
I7
aI3
aI1480000
aI2400000
aa(lp995
I7
aI4
aI2680000
aI5200000
aa(lp996
I7
aI5
aI5200000
aI5720000
aa(lp997
I7
aI6
aI5760000
aI6480000
aa(lp998
I7
aI7
aI6480000
aI6840000
aa(lp999
I7
aI8
aI6880000
aI8320000
aa(lp1000
I7
aI9
aI8320000
aI11360000
aa(lp1001
I7
aI10
aI11440000
aI12400000
aa(lp1002
I7
aI11
aI12520000
aI13280000
aa(lp1003
I7
aI12
aI13280000
aI14720000
aa(lp1004
I7
aI13
aI15200000
aI16080000
aa(lp1005
I7
aI14
aI16120000
aI16600000
aa(lp1006
I7
aI15
aI16600000
aI17680000
aa(lp1007
I7
aI16
aI17680000
aI18320000
aa(lp1008
I7
aI17
aI18360000
aI19680000
aa(lp1009
I7
aI18
aI19720000
aI20640000
aa(lp1010
I7
aI19
aI20680000
aI22080000
aa(lp1011
I7
aI20
aI22080000
aI22520000
aa(lp1012
I7
aI21
aI22520000
aI23200000
aa(lp1013
I7
aI22
aI23280000
aI23560000
aa(lp1014
I7
aI23
aI23560000
aI25160000
aa(lp1015
I7
aI24
aI25200000
aI27160000
aa(lp1016
I7
aI25
aI27200000
aI28120000
aa(lp1017
I7
aI26
aI28280000
aI29480000
aa(lp1018
I7
aI27
aI29600000
aI30600000
aa(lp1019
I7
aI28
aI30600000
aI32520000
aa(lp1020
I7
aI29
aI32520000
aI33120000
aa(lp1021
I7
aI30
aI33160000
aI34160000
aa(lp1022
I7
aI31
aI35640000
aI36440000
aa(lp1023
I7
aI32
aI36440000
aI37240000
aa(lp1024
I7
aI33
aI38080000
aI39560000
aa(lp1025
I7
aI34
aI39560000
aI41960000
aa(lp1026
I7
aI35
aI41960000
aI42880000
aa(lp1027
I7
aI36
aI42920000
aI43480000
aa(lp1028
I7
aI37
aI43560000
aI44000000
aa(lp1029
I7
aI38
aI44040000
aI44560000
aa(lp1030
I7
aI39
aI44560000
aI45160000
aa(lp1031
I7
aI40
aI45160000
aI47280000
aa(lp1032
I7
aI41
aI47280000
aI48200000
aa(lp1033
I7
aI42
aI48200000
aI50040000
aa(lp1034
I7
aI43
aI50440000
aI51400000
aa(lp1035
I7
aI44
aI51400000
aI54520000
aa(lp1036
I7
aI45
aI54760000
aI55640000
aa(lp1037
I7
aI46
aI55760000
aI56160000
aa(lp1038
I7
aI47
aI56240000
aI58080000
aa(lp1039
I7
aI48
aI61040000
aI62600000
aa(lp1040
I7
aI49
aI62600000
aI64600000
aa(lp1041
I7
aI50
aI64800000
aI66360000
aa(lp1042
I7
aI51
aI66360000
aI69840000
aa(lp1043
I7
aI52
aI69920000
aI72040000
aa(lp1044
I7
aI53
aI72320000
aI73800000
aa(lp1045
I7
aI54
aI74120000
aI76080000
aa(lp1046
I7
aI55
aI76120000
aI77080000
aa(lp1047
I7
aI56
aI77400000
aI78680000
aa(lp1048
I7
aI57
aI78720000
aI79520000
aa(lp1049
I7
aI58
aI79520000
aI80160000
aa(lp1050
I7
aI59
aI80160000
aI80920000
aa(lp1051
I7
aI60
aI80960000
aI82240000
aa(lp1052
I7
aI61
aI82360000
aI85360000
aa(lp1053
I7
aI62
aI85360000
aI87640000
aa(lp1054
I7
aI63
aI87680000
aI89560000
aa(lp1055
I7
aI64
aI89600000
aI91320000
aa(lp1056
I7
aI65
aI91560000
aI91960000
aa(lp1057
I7
aI66
aI92000000
aI92560000
aa(lp1058
I7
aI67
aI92680000
aI93960000
aa(lp1059
I7
aI68
aI93960000
aI95200000
aa(lp1060
I7
aI69
aI95280000
aI96560000
aa(lp1061
I7
aI70
aI96560000
aI97320000
aa(lp1062
I7
aI71
aI97680000
aI98320000
aa(lp1063
I7
aI72
aI98320000
aI98840000
aa(lp1064
I7
aI73
aI98880000
aI100320000
aa(lp1065
I7
aI74
aI100320000
aI100720000
aa(lp1066
I7
aI75
aI100720000
aI101920000
aa(lp1067
I7
aI76
aI102080000
aI102520000
aa(lp1068
I7
aI77
aI102680000
aI104360000
aa(lp1069
I7
aI78
aI104360000
aI104960000
aa(lp1070
I7
aI79
aI105000000
aI105480000
aa(lp1071
I7
aI80
aI105600000
aI106600000
aa(lp1072
I7
aI81
aI106640000
aI107600000
aa(lp1073
I7
aI82
aI107600000
aI108000000
aa(lp1074
I7
aI83
aI108000000
aI111160000
aa(lp1075
I7
aI84
aI111160000
aI111920000
aa(lp1076
I7
aI85
aI111920000
aI113160000
aa(lp1077
I7
aI86
aI113160000
aI115560000
aa(lp1078
I7
aI87
aI115560000
aI116840000
aa(lp1079
I7
aI88
aI116840000
aI117640000
aa(lp1080
I7
aI89
aI117680000
aI120000000
aa(lp1081
I7
aI90
aI120160000
aI122000000
aa(lp1082
I7
aI91
aI122880000
aI124360000
aa(lp1083
I7
aI92
aI124520000
aI126760000
aa(lp1084
I7
aI93
aI126960000
aI127760000
aa(lp1085
I7
aI94
aI127800000
aI128320000
aa(lp1086
I7
aI95
aI128320000
aI129480000
aa(lp1087
I7
aI96
aI129480000
aI130200000
aa(lp1088
I7
aI97
aI130200000
aI131000000
aa(lp1089
I7
aI98
aI131000000
aI133800000
aa(lp1090
I7
aI99
aI133960000
aI134320000
aa(lp1091
I7
aI100
aI134320000
aI134520000
aa(lp1092
I7
aI101
aI134600000
aI134960000
aa(lp1093
I7
aI102
aI135000000
aI135360000
aa(lp1094
I7
aI103
aI135440000
aI136960000
aa(lp1095
I7
aI104
aI136960000
aI137400000
aa(lp1096
I7
aI105
aI137400000
aI138440000
aa(lp1097
I7
aI106
aI138680000
aI139760000
aa(lp1098
I7
aI107
aI139760000
aI140040000
aa(lp1099
I7
aI108
aI140040000
aI141160000
aa(lp1100
I7
aI109
aI141640000
aI142640000
aa(lp1101
I7
aI110
aI142640000
aI143520000
aa(lp1102
I7
aI111
aI143720000
aI147760000
aa(lp1103
I7
aI112
aI147800000
aI148320000
aa(lp1104
I7
aI113
aI148400000
aI150320000
aa(lp1105
I7
aI114
aI150360000
aI151120000
aa(lp1106
I7
aI115
aI151120000
aI152160000
aa(lp1107
I7
aI116
aI152200000
aI154240000
aa(lp1108
I7
aI117
aI154320000
aI156400000
aa(lp1109
I7
aI118
aI156440000
aI156880000
aa(lp1110
I7
aI119
aI156880000
aI158821424
aa(lp1111
I8
aI1
aI120000
aI2080000
aa(lp1112
I8
aI2
aI2120000
aI6240000
aa(lp1113
I8
aI3
aI6240000
aI7280000
aa(lp1114
I8
aI4
aI7800000
aI8560000
aa(lp1115
I8
aI5
aI8640000
aI8920000
aa(lp1116
I8
aI6
aI8920000
aI9760000
aa(lp1117
I8
aI7
aI9760000
aI10360000
aa(lp1118
I8
aI8
aI10440000
aI10760000
aa(lp1119
I8
aI9
aI10800000
aI11200000
aa(lp1120
I8
aI10
aI11280000
aI12320000
aa(lp1121
I8
aI11
aI12480000
aI13600000
aa(lp1122
I8
aI12
aI13640000
aI17120000
aa(lp1123
I8
aI13
aI17200000
aI17840000
aa(lp1124
I8
aI14
aI17840000
aI18720000
aa(lp1125
I8
aI15
aI18760000
aI19240000
aa(lp1126
I8
aI16
aI19280000
aI19760000
aa(lp1127
I8
aI17
aI19760000
aI20040000
aa(lp1128
I8
aI18
aI20080000
aI21840000
aa(lp1129
I8
aI19
aI22000000
aI23360000
aa(lp1130
I8
aI20
aI23360000
aI24160000
aa(lp1131
I8
aI21
aI24160000
aI25400000
aa(lp1132
I8
aI22
aI25400000
aI27200000
aa(lp1133
I8
aI23
aI27200000
aI28520000
aa(lp1134
I8
aI24
aI28680000
aI30120000
aa(lp1135
I8
aI25
aI30160000
aI30800000
aa(lp1136
I8
aI26
aI30800000
aI31160000
aa(lp1137
I8
aI27
aI31160000
aI32520000
aa(lp1138
I8
aI28
aI32520000
aI33600000
aa(lp1139
I8
aI29
aI33640000
aI36760000
aa(lp1140
I8
aI30
aI36800000
aI37680000
aa(lp1141
I8
aI31
aI37720000
aI38760000
aa(lp1142
I8
aI32
aI38800000
aI39080000
aa(lp1143
I8
aI33
aI39320000
aI41040000
aa(lp1144
I8
aI34
aI41080000
aI41520000
aa(lp1145
I8
aI35
aI41520000
aI42360000
aa(lp1146
I8
aI36
aI42400000
aI43040000
aa(lp1147
I8
aI37
aI43280000
aI43960000
aa(lp1148
I8
aI38
aI47000000
aI48880000
aa(lp1149
I8
aI39
aI49040000
aI50040000
aa(lp1150
I8
aI40
aI50080000
aI52760000
aa(lp1151
I8
aI41
aI53120000
aI53480000
aa(lp1152
I8
aI42
aI53560000
aI56840000
aa(lp1153
I8
aI43
aI56840000
aI57160000
aa(lp1154
I8
aI44
aI57320000
aI58360000
aa(lp1155
I8
aI45
aI58480000
aI59480000
aa(lp1156
I8
aI46
aI59600000
aI61320000
aa(lp1157
I8
aI47
aI61480000
aI62240000
aa(lp1158
I8
aI48
aI62560000
aI64400000
aa(lp1159
I8
aI49
aI64480000
aI65480000
aa(lp1160
I8
aI50
aI65600000
aI66680000
aa(lp1161
I8
aI51
aI66680000
aI67520000
aa(lp1162
I8
aI52
aI67520000
aI68920000
aa(lp1163
I8
aI53
aI69480000
aI70720000
aa(lp1164
I8
aI54
aI70960000
aI71760000
aa(lp1165
I8
aI55
aI71800000
aI72880000
aa(lp1166
I8
aI56
aI72880000
aI73320000
aa(lp1167
I8
aI57
aI74080000
aI76360000
aa(lp1168
I8
aI58
aI76480000
aI79440000
aa(lp1169
I8
aI59
aI79480000
aI80680000
aa(lp1170
I8
aI60
aI80720000
aI81120000
aa(lp1171
I8
aI61
aI81120000
aI82800000
aa(lp1172
I8
aI62
aI83000000
aI85640000
aa(lp1173
I8
aI63
aI85680000
aI86080000
aa(lp1174
I8
aI64
aI86160000
aI87600000
aa(lp1175
I8
aI65
aI87680000
aI90800000
aa(lp1176
I8
aI66
aI90800000
aI92040000
aa(lp1177
I8
aI67
aI92440000
aI94760000
aa(lp1178
I8
aI68
aI94760000
aI95560000
aa(lp1179
I8
aI69
aI95640000
aI96360000
aa(lp1180
I8
aI70
aI96360000
aI97320000
aa(lp1181
I8
aI71
aI97320000
aI98680000
aa(lp1182
I8
aI72
aI98800000
aI99200000
aa(lp1183
I8
aI73
aI99200000
aI101200000
aa(lp1184
I8
aI74
aI101200000
aI101640000
aa(lp1185
I8
aI75
aI101640000
aI102400000
aa(lp1186
I8
aI76
aI102400000
aI103320000
aa(lp1187
I8
aI77
aI103320000
aI103920000
aa(lp1188
I8
aI78
aI103920000
aI104160000
aa(lp1189
I8
aI79
aI104160000
aI104640000
aa(lp1190
I8
aI80
aI104800000
aI105520000
aa(lp1191
I8
aI81
aI105560000
aI106920000
aa(lp1192
I8
aI82
aI106960000
aI107760000
aa(lp1193
I8
aI83
aI107760000
aI108880000
aa(lp1194
I8
aI84
aI108880000
aI109840000
aa(lp1195
I8
aI85
aI109920000
aI110440000
aa(lp1196
I8
aI86
aI110840000
aI114520000
aa(lp1197
I8
aI87
aI116120000
aI118360000
aa(lp1198
I8
aI88
aI118400000
aI119800000
aa(lp1199
I8
aI89
aI119800000
aI120880000
aa(lp1200
I8
aI90
aI120920000
aI121520000
aa(lp1201
I8
aI91
aI121520000
aI123760000
aa(lp1202
I8
aI92
aI123760000
aI124320000
aa(lp1203
I8
aI93
aI124320000
aI124840000
aa(lp1204
I8
aI94
aI124880000
aI125560000
aa(lp1205
I8
aI95
aI125600000
aI126120000
aa(lp1206
I8
aI96
aI126160000
aI126800000
aa(lp1207
I8
aI97
aI126800000
aI127880000
aa(lp1208
I8
aI98
aI127880000
aI128800000
aa(lp1209
I8
aI99
aI128800000
aI130880000
aa(lp1210
I8
aI100
aI130880000
aI131800000
aa(lp1211
I8
aI101
aI131800000
aI133720000
aa(lp1212
I8
aI102
aI133840000
aI134280000
aa(lp1213
I8
aI103
aI134280000
aI134560000
aa(lp1214
I8
aI104
aI134560000
aI135960000
aa(lp1215
I8
aI105
aI136000000
aI138840000
aa(lp1216
I8
aI106
aI139800000
aI140640000
aa(lp1217
I8
aI107
aI140760000
aI141520000
aa(lp1218
I8
aI108
aI141520000
aI142520000
aa(lp1219
I8
aI109
aI142520000
aI144440000
aa(lp1220
I8
aI110
aI144440000
aI145680000
aa(lp1221
I8
aI111
aI145720000
aI146274826
aa(lp1222
I9
aI1
aI160000
aI800000
aa(lp1223
I9
aI2
aI800000
aI2000000
aa(lp1224
I9
aI3
aI2000000
aI2840000
aa(lp1225
I9
aI4
aI2840000
aI4680000
aa(lp1226
I9
aI5
aI4680000
aI5000000
aa(lp1227
I9
aI6
aI5000000
aI5760000
aa(lp1228
I9
aI7
aI5760000
aI6760000
aa(lp1229
I9
aI8
aI6760000
aI7560000
aa(lp1230
I9
aI9
aI7560000
aI9920000
aa(lp1231
I9
aI10
aI9920000
aI12480000
aa(lp1232
I9
aI11
aI12480000
aI15120000
aa(lp1233
I9
aI12
aI15120000
aI15440000
aa(lp1234
I9
aI13
aI15440000
aI17480000
aa(lp1235
I9
aI14
aI17480000
aI19040000
aa(lp1236
I9
aI15
aI19040000
aI19480000
aa(lp1237
I9
aI16
aI19480000
aI21200000
aa(lp1238
I9
aI17
aI21200000
aI21800000
aa(lp1239
I9
aI18
aI21800000
aI22280000
aa(lp1240
I9
aI19
aI22280000
aI24400000
aa(lp1241
I9
aI20
aI24400000
aI25880000
aa(lp1242
I9
aI21
aI25880000
aI26680000
aa(lp1243
I9
aI22
aI26680000
aI27320000
aa(lp1244
I9
aI23
aI27320000
aI27680000
aa(lp1245
I9
aI24
aI27680000
aI32320000
aa(lp1246
I9
aI25
aI32320000
aI33000000
aa(lp1247
I9
aI26
aI33000000
aI34400000
aa(lp1248
I9
aI27
aI34400000
aI34640000
aa(lp1249
I9
aI28
aI34640000
aI35080000
aa(lp1250
I9
aI29
aI35080000
aI35720000
aa(lp1251
I9
aI30
aI35720000
aI36360000
aa(lp1252
I9
aI31
aI36360000
aI36560000
aa(lp1253
I9
aI32
aI36560000
aI37440000
aa(lp1254
I9
aI33
aI37440000
aI39200000
aa(lp1255
I9
aI34
aI44080000
aI44840000
aa(lp1256
I9
aI35
aI67720000
aI69280000
aa(lp1257
I9
aI36
aI70200000
aI70800000
aa(lp1258
I9
aI37
aI70800000
aI71760000
aa(lp1259
I9
aI38
aI71760000
aI72080000
aa(lp1260
I9
aI39
aI72080000
aI72440000
aa(lp1261
I9
aI40
aI72440000
aI75000000
aa(lp1262
I9
aI41
aI75000000
aI76520000
aa(lp1263
I9
aI42
aI76520000
aI77000000
aa(lp1264
I9
aI43
aI77000000
aI78200000
aa(lp1265
I9
aI44
aI78200000
aI78560000
aa(lp1266
I9
aI45
aI78560000
aI78960000
aa(lp1267
I9
aI46
aI78960000
aI79560000
aa(lp1268
I9
aI47
aI79560000
aI80040000
aa(lp1269
I9
aI48
aI80040000
aI80920000
aa(lp1270
I9
aI49
aI80920000
aI81960000
aa(lp1271
I9
aI50
aI81960000
aI84480000
aa(lp1272
I9
aI51
aI84480000
aI85400000
aa(lp1273
I9
aI52
aI85400000
aI86160000
aa(lp1274
I9
aI53
aI86160000
aI87720000
aa(lp1275
I9
aI54
aI87720000
aI88080000
aa(lp1276
I9
aI55
aI88080000
aI89160000
aa(lp1277
I9
aI56
aI89160000
aI89480000
aa(lp1278
I9
aI57
aI89480000
aI90200000
aa(lp1279
I9
aI58
aI90200000
aI90400000
aa(lp1280
I9
aI59
aI90400000
aI91120000
aa(lp1281
I9
aI60
aI91120000
aI91920000
aa(lp1282
I9
aI61
aI91920000
aI92680000
aa(lp1283
I9
aI62
aI92680000
aI93560000
aa(lp1284
I9
aI63
aI93560000
aI93920000
aa(lp1285
I9
aI64
aI93920000
aI94640000
aa(lp1286
I9
aI65
aI94640000
aI95400000
aa(lp1287
I9
aI66
aI95400000
aI95800000
aa(lp1288
I9
aI67
aI95800000
aI96120000
aa(lp1289
I9
aI68
aI96120000
aI96960000
aa(lp1290
I9
aI69
aI96960000
aI98120000
aa(lp1291
I9
aI70
aI98120000
aI98640000
aa(lp1292
I9
aI71
aI98640000
aI99240000
aa(lp1293
I9
aI72
aI99240000
aI99440000
aa(lp1294
I9
aI73
aI99440000
aI100600000
aa(lp1295
I9
aI74
aI100600000
aI100960000
aa(lp1296
I9
aI75
aI100960000
aI102440000
aa(lp1297
I9
aI76
aI102440000
aI103200000
aa(lp1298
I9
aI77
aI103200000
aI103400000
aa(lp1299
I9
aI78
aI103400000
aI105320000
aa(lp1300
I9
aI79
aI105320000
aI106600000
aa(lp1301
I9
aI80
aI106600000
aI107400000
aa(lp1302
I9
aI81
aI107400000
aI109160000
aa(lp1303
I9
aI82
aI109160000
aI110720000
aa(lp1304
I9
aI83
aI110720000
aI111240000
aa(lp1305
I9
aI84
aI111240000
aI111960000
aa(lp1306
I9
aI85
aI111960000
aI113400000
aa(lp1307
I9
aI86
aI113400000
aI113880000
aa(lp1308
I9
aI87
aI113880000
aI114200000
aa(lp1309
I9
aI88
aI114200000
aI114960000
aa(lp1310
I9
aI89
aI114960000
aI115480000
aa(lp1311
I9
aI90
aI115480000
aI115880000
aa(lp1312
I9
aI91
aI115880000
aI116080000
aa(lp1313
I9
aI92
aI116080000
aI116840000
aa(lp1314
I9
aI93
aI116840000
aI117360000
aa(lp1315
I9
aI94
aI117360000
aI118480000
aa(lp1316
I9
aI95
aI118480000
aI122360000
aa(lp1317
I9
aI96
aI122360000
aI123280000
aa(lp1318
I9
aI97
aI123280000
aI123880000
aa(lp1319
I9
aI98
aI123880000
aI124280000
aa(lp1320
I9
aI99
aI124280000
aI124640000
aa(lp1321
I9
aI100
aI124640000
aI125200000
aa(lp1322
I9
aI101
aI125200000
aI126200000
aa(lp1323
I9
aI102
aI126200000
aI126560000
aa(lp1324
I9
aI103
aI126560000
aI127200000
aa(lp1325
I9
aI104
aI127200000
aI128600000
aa(lp1326
I9
aI105
aI128600000
aI129040000
aa(lp1327
I9
aI106
aI129040000
aI129280000
aa(lp1328
I9
aI107
aI129280000
aI129720000
aa(lp1329
I9
aI108
aI129720000
aI129920000
aa(lp1330
I9
aI109
aI129920000
aI130880000
aa(lp1331
I9
aI110
aI130880000
aI131440000
aa(lp1332
I9
aI111
aI131440000
aI132280000
aa(lp1333
I9
aI112
aI132280000
aI132560000
aa(lp1334
I9
aI113
aI132560000
aI132920000
aa(lp1335
I9
aI114
aI132920000
aI133200000
aa(lp1336
I9
aI115
aI133200000
aI133360000
aa(lp1337
I9
aI116
aI133360000
aI134240000
aa(lp1338
I9
aI117
aI134240000
aI134880000
aa(lp1339
I9
aI118
aI134880000
aI135200000
aa(lp1340
I9
aI119
aI135200000
aI135360000
aa(lp1341
I9
aI120
aI135360000
aI135600000
aa(lp1342
I9
aI121
aI135600000
aI135960000
aa(lp1343
I9
aI122
aI136280000
aI136840000
aa(lp1344
I9
aI123
aI136840000
aI137800000
aa(lp1345
I9
aI124
aI137800000
aI138320000
aa(lp1346
I9
aI125
aI138320000
aI138720000
aa(lp1347
I9
aI126
aI138720000
aI139080000
aa(lp1348
I9
aI127
aI139080000
aI139280000
aa(lp1349
I9
aI128
aI139280000
aI139600000
aa(lp1350
I9
aI129
aI139600000
aI140273252
aa(lp1351
I10
aI1
aI80000
aI1120000
aa(lp1352
I10
aI2
aI1120000
aI3080000
aa(lp1353
I10
aI3
aI3120000
aI4840000
aa(lp1354
I10
aI4
aI4840000
aI5440000
aa(lp1355
I10
aI5
aI5440000
aI6480000
aa(lp1356
I10
aI6
aI6520000
aI7560000
aa(lp1357
I10
aI7
aI7880000
aI9400000
aa(lp1358
I10
aI8
aI9400000
aI11880000
aa(lp1359
I10
aI9
aI12240000
aI13240000
aa(lp1360
I10
aI10
aI13440000
aI15480000
aa(lp1361
I10
aI11
aI15480000
aI15920000
aa(lp1362
I10
aI12
aI15960000
aI16880000
aa(lp1363
I10
aI13
aI16880000
aI17840000
aa(lp1364
I10
aI14
aI18240000
aI19000000
aa(lp1365
I10
aI15
aI19000000
aI21200000
aa(lp1366
I10
aI16
aI21360000
aI22280000
aa(lp1367
I10
aI17
aI22320000
aI23440000
aa(lp1368
I10
aI18
aI23480000
aI24920000
aa(lp1369
I10
aI19
aI24920000
aI27000000
aa(lp1370
I10
aI20
aI27000000
aI27240000
aa(lp1371
I10
aI21
aI27680000
aI28840000
aa(lp1372
I10
aI22
aI28880000
aI29760000
aa(lp1373
I10
aI23
aI29800000
aI30960000
aa(lp1374
I10
aI24
aI30960000
aI32680000
aa(lp1375
I10
aI25
aI32720000
aI35000000
aa(lp1376
I10
aI26
aI35000000
aI35400000
aa(lp1377
I10
aI27
aI35400000
aI35880000
aa(lp1378
I10
aI28
aI35920000
aI37240000
aa(lp1379
I10
aI29
aI37280000
aI39120000
aa(lp1380
I10
aI30
aI41720000
aI43280000
aa(lp1381
I10
aI31
aI43400000
aI45560000
aa(lp1382
I10
aI32
aI46360000
aI47200000
aa(lp1383
I10
aI33
aI47920000
aI48320000
aa(lp1384
I10
aI34
aI49040000
aI51280000
aa(lp1385
I10
aI35
aI51600000
aI52200000
aa(lp1386
I10
aI36
aI52280000
aI54240000
aa(lp1387
I10
aI37
aI54240000
aI59560000
aa(lp1388
I10
aI38
aI59600000
aI62160000
aa(lp1389
I10
aI39
aI62200000
aI63680000
aa(lp1390
I10
aI40
aI63880000
aI64600000
aa(lp1391
I10
aI41
aI64600000
aI65280000
aa(lp1392
I10
aI42
aI65400000
aI69240000
aa(lp1393
I10
aI43
aI69280000
aI69760000
aa(lp1394
I10
aI44
aI69800000
aI71520000
aa(lp1395
I10
aI45
aI71600000
aI71840000
aa(lp1396
I10
aI46
aI71880000
aI72320000
aa(lp1397
I10
aI47
aI72320000
aI73280000
aa(lp1398
I10
aI48
aI73320000
aI73800000
aa(lp1399
I10
aI49
aI73800000
aI75240000
aa(lp1400
I10
aI50
aI75240000
aI75560000
aa(lp1401
I10
aI51
aI75560000
aI76680000
aa(lp1402
I10
aI52
aI76680000
aI78560000
aa(lp1403
I10
aI53
aI78560000
aI79240000
aa(lp1404
I10
aI54
aI79240000
aI79440000
aa(lp1405
I10
aI55
aI79440000
aI81600000
aa(lp1406
I10
aI56
aI81600000
aI82000000
aa(lp1407
I10
aI57
aI82040000
aI85720000
aa(lp1408
I10
aI58
aI85880000
aI86280000
aa(lp1409
I10
aI59
aI86280000
aI88160000
aa(lp1410
I10
aI60
aI88160000
aI88360000
aa(lp1411
I10
aI61
aI88440000
aI88680000
aa(lp1412
I10
aI62
aI88680000
aI88920000
aa(lp1413
I10
aI63
aI89120000
aI91000000
aa(lp1414
I10
aI64
aI91000000
aI91520000
aa(lp1415
I10
aI65
aI91520000
aI92600000
aa(lp1416
I10
aI66
aI92600000
aI93040000
aa(lp1417
I10
aI67
aI93040000
aI93680000
aa(lp1418
I10
aI68
aI93680000
aI94240000
aa(lp1419
I10
aI69
aI94240000
aI95440000
aa(lp1420
I10
aI70
aI95640000
aI96320000
aa(lp1421
I10
aI71
aI96320000
aI98120000
aa(lp1422
I10
aI72
aI98120000
aI99480000
aa(lp1423
I10
aI73
aI99520000
aI100200000
aa(lp1424
I10
aI74
aI100200000
aI101360000
aa(lp1425
I10
aI75
aI101480000
aI102000000
aa(lp1426
I10
aI76
aI102040000
aI102280000
aa(lp1427
I10
aI77
aI102280000
aI102760000
aa(lp1428
I10
aI78
aI102760000
aI103560000
aa(lp1429
I10
aI79
aI103560000
aI103880000
aa(lp1430
I10
aI80
aI103880000
aI104400000
aa(lp1431
I10
aI81
aI104400000
aI105440000
aa(lp1432
I10
aI82
aI105440000
aI106120000
aa(lp1433
I10
aI83
aI106120000
aI111600000
aa(lp1434
I10
aI84
aI111600000
aI112040000
aa(lp1435
I10
aI85
aI112040000
aI112800000
aa(lp1436
I10
aI86
aI112800000
aI113880000
aa(lp1437
I10
aI87
aI114200000
aI115360000
aa(lp1438
I10
aI88
aI115440000
aI115880000
aa(lp1439
I10
aI89
aI116000000
aI116920000
aa(lp1440
I10
aI90
aI117440000
aI118240000
aa(lp1441
I10
aI91
aI118320000
aI118960000
aa(lp1442
I10
aI92
aI119160000
aI120760000
aa(lp1443
I10
aI93
aI120800000
aI121720000
aa(lp1444
I10
aI94
aI121720000
aI123680000
aa(lp1445
I10
aI95
aI123680000
aI126120000
aa(lp1446
I10
aI96
aI126160000
aI127440000
aa(lp1447
I10
aI97
aI127480000
aI129840000
aa(lp1448
I10
aI98
aI129840000
aI131880000
aa(lp1449
I10
aI99
aI131880000
aI133840000
aa(lp1450
I10
aI100
aI133840000
aI135374737
aa(lp1451
I11
aI1
aI160000
aI520000
aa(lp1452
I11
aI2
aI520000
aI800000
aa(lp1453
I11
aI3
aI840000
aI1520000
aa(lp1454
I11
aI4
aI1520000
aI2160000
aa(lp1455
I11
aI5
aI2160000
aI3600000
aa(lp1456
I11
aI6
aI3800000
aI4120000
aa(lp1457
I11
aI7
aI4120000
aI6680000
aa(lp1458
I11
aI8
aI6720000
aI8560000
aa(lp1459
I11
aI9
aI8560000
aI10720000
aa(lp1460
I11
aI10
aI10720000
aI12280000
aa(lp1461
I11
aI11
aI12280000
aI12920000
aa(lp1462
I11
aI12
aI12920000
aI13440000
aa(lp1463
I11
aI13
aI13440000
aI14240000
aa(lp1464
I11
aI14
aI14240000
aI14520000
aa(lp1465
I11
aI15
aI14520000
aI15200000
aa(lp1466
I11
aI16
aI15240000
aI16760000
aa(lp1467
I11
aI17
aI17520000
aI18880000
aa(lp1468
I11
aI18
aI19040000
aI20400000
aa(lp1469
I11
aI19
aI20600000
aI22800000
aa(lp1470
I11
aI20
aI22800000
aI26280000
aa(lp1471
I11
aI21
aI26680000
aI27160000
aa(lp1472
I11
aI22
aI27160000
aI27480000
aa(lp1473
I11
aI23
aI27480000
aI29360000
aa(lp1474
I11
aI24
aI29440000
aI30920000
aa(lp1475
I11
aI25
aI31080000
aI32800000
aa(lp1476
I11
aI26
aI32880000
aI33720000
aa(lp1477
I11
aI27
aI33800000
aI34360000
aa(lp1478
I11
aI28
aI34480000
aI34880000
aa(lp1479
I11
aI29
aI34880000
aI35400000
aa(lp1480
I11
aI30
aI35400000
aI36520000
aa(lp1481
I11
aI31
aI36800000
aI43280000
aa(lp1482
I11
aI32
aI43280000
aI45800000
aa(lp1483
I11
aI33
aI45800000
aI47800000
aa(lp1484
I11
aI34
aI47840000
aI48120000
aa(lp1485
I11
aI35
aI48160000
aI51440000
aa(lp1486
I11
aI36
aI54520000
aI56320000
aa(lp1487
I11
aI37
aI56360000
aI56800000
aa(lp1488
I11
aI38
aI56800000
aI60280000
aa(lp1489
I11
aI39
aI60280000
aI61880000
aa(lp1490
I11
aI40
aI61880000
aI62400000
aa(lp1491
I11
aI41
aI62440000
aI63720000
aa(lp1492
I11
aI42
aI63880000
aI64320000
aa(lp1493
I11
aI43
aI64360000
aI65800000
aa(lp1494
I11
aI44
aI65800000
aI66360000
aa(lp1495
I11
aI45
aI66360000
aI67040000
aa(lp1496
I11
aI46
aI67040000
aI67960000
aa(lp1497
I11
aI47
aI68000000
aI69200000
aa(lp1498
I11
aI48
aI69200000
aI69960000
aa(lp1499
I11
aI49
aI69960000
aI70960000
aa(lp1500
I11
aI50
aI71320000
aI72080000
aa(lp1501
I11
aI51
aI72080000
aI72680000
aa(lp1502
I11
aI52
aI72760000
aI73320000
aa(lp1503
I11
aI53
aI73360000
aI74280000
aa(lp1504
I11
aI54
aI74280000
aI74640000
aa(lp1505
I11
aI55
aI74800000
aI74960000
aa(lp1506
I11
aI56
aI74960000
aI76120000
aa(lp1507
I11
aI57
aI76480000
aI77040000
aa(lp1508
I11
aI58
aI77080000
aI77480000
aa(lp1509
I11
aI59
aI77560000
aI77960000
aa(lp1510
I11
aI60
aI78000000
aI78880000
aa(lp1511
I11
aI61
aI79000000
aI81840000
aa(lp1512
I11
aI62
aI82040000
aI82600000
aa(lp1513
I11
aI63
aI82680000
aI83960000
aa(lp1514
I11
aI64
aI84120000
aI84960000
aa(lp1515
I11
aI65
aI85000000
aI85720000
aa(lp1516
I11
aI66
aI85720000
aI86320000
aa(lp1517
I11
aI67
aI86320000
aI86720000
aa(lp1518
I11
aI68
aI86720000
aI89120000
aa(lp1519
I11
aI69
aI89440000
aI93040000
aa(lp1520
I11
aI70
aI93120000
aI93880000
aa(lp1521
I11
aI71
aI93960000
aI94360000
aa(lp1522
I11
aI72
aI94440000
aI95160000
aa(lp1523
I11
aI73
aI95160000
aI95800000
aa(lp1524
I11
aI74
aI95840000
aI98320000
aa(lp1525
I11
aI75
aI98640000
aI100720000
aa(lp1526
I11
aI76
aI100760000
aI102440000
aa(lp1527
I11
aI77
aI102480000
aI105440000
aa(lp1528
I11
aI78
aI105440000
aI106680000
aa(lp1529
I11
aI79
aI106920000
aI107280000
aa(lp1530
I11
aI80
aI107400000
aI108040000
aa(lp1531
I11
aI81
aI108040000
aI109280000
aa(lp1532
I11
aI82
aI109320000
aI111440000
aa(lp1533
I11
aI83
aI111520000
aI112640000
aa(lp1534
I11
aI84
aI112680000
aI113160000
aa(lp1535
I11
aI85
aI113280000
aI113640000
aa(lp1536
I11
aI86
aI113640000
aI116120000
aa(lp1537
I11
aI87
aI116120000
aI116760000
aa(lp1538
I11
aI88
aI116760000
aI117720000
aa(lp1539
I11
aI89
aI117960000
aI118400000
aa(lp1540
I11
aI90
aI118440000
aI118720000
aa(lp1541
I11
aI91
aI118720000
aI119840000
aa(lp1542
I11
aI92
aI119880000
aI120960000
aa(lp1543
I11
aI93
aI120960000
aI121960000
aa(lp1544
I11
aI94
aI122000000
aI122440000
aa(lp1545
I11
aI95
aI122440000
aI122960000
aa(lp1546
I11
aI96
aI123120000
aI125240000
aa(lp1547
I11
aI97
aI125280000
aI125640000
aa(lp1548
I11
aI98
aI125640000
aI126400000
aa(lp1549
I11
aI99
aI127400000
aI128240000
aa(lp1550
I11
aI100
aI128480000
aI129200000
aa(lp1551
I11
aI101
aI129240000
aI129520000
aa(lp1552
I11
aI102
aI129560000
aI130280000
aa(lp1553
I11
aI103
aI130320000
aI131520000
aa(lp1554
I11
aI104
aI131800000
aI134452384
aa(lp1555
I12
aI1
aI0
aI1600000
aa(lp1556
I12
aI2
aI1600000
aI3040000
aa(lp1557
I12
aI3
aI3040000
aI3280000
aa(lp1558
I12
aI4
aI3280000
aI3800000
aa(lp1559
I12
aI5
aI3840000
aI4280000
aa(lp1560
I12
aI6
aI4800000
aI5960000
aa(lp1561
I12
aI7
aI6040000
aI6280000
aa(lp1562
I12
aI8
aI6600000
aI7160000
aa(lp1563
I12
aI9
aI7200000
aI8440000
aa(lp1564
I12
aI10
aI8560000
aI9280000
aa(lp1565
I12
aI11
aI9760000
aI11560000
aa(lp1566
I12
aI12
aI11560000
aI12080000
aa(lp1567
I12
aI13
aI12120000
aI13320000
aa(lp1568
I12
aI14
aI13320000
aI14720000
aa(lp1569
I12
aI15
aI14800000
aI15960000
aa(lp1570
I12
aI16
aI16120000
aI18160000
aa(lp1571
I12
aI17
aI18200000
aI19240000
aa(lp1572
I12
aI18
aI19760000
aI20680000
aa(lp1573
I12
aI19
aI21560000
aI22560000
aa(lp1574
I12
aI20
aI22760000
aI24880000
aa(lp1575
I12
aI21
aI24880000
aI26120000
aa(lp1576
I12
aI22
aI26120000
aI26960000
aa(lp1577
I12
aI23
aI27040000
aI27760000
aa(lp1578
I12
aI24
aI27760000
aI29080000
aa(lp1579
I12
aI25
aI29120000
aI31280000
aa(lp1580
I12
aI26
aI31320000
aI32800000
aa(lp1581
I12
aI27
aI32800000
aI34760000
aa(lp1582
I12
aI28
aI36120000
aI40720000
aa(lp1583
I12
aI29
aI40760000
aI42600000
aa(lp1584
I12
aI30
aI42640000
aI43760000
aa(lp1585
I12
aI31
aI43800000
aI44440000
aa(lp1586
I12
aI32
aI44680000
aI45720000
aa(lp1587
I12
aI33
aI45720000
aI47360000
aa(lp1588
I12
aI34
aI47720000
aI48320000
aa(lp1589
I12
aI35
aI48320000
aI49440000
aa(lp1590
I12
aI36
aI49440000
aI50080000
aa(lp1591
I12
aI37
aI50080000
aI50680000
aa(lp1592
I12
aI38
aI50800000
aI52200000
aa(lp1593
I12
aI39
aI52440000
aI53160000
aa(lp1594
I12
aI40
aI53280000
aI54320000
aa(lp1595
I12
aI41
aI54400000
aI56440000
aa(lp1596
I12
aI42
aI56440000
aI57880000
aa(lp1597
I12
aI43
aI58000000
aI60880000
aa(lp1598
I12
aI44
aI60920000
aI61760000
aa(lp1599
I12
aI45
aI62240000
aI63080000
aa(lp1600
I12
aI46
aI63120000
aI63440000
aa(lp1601
I12
aI47
aI63440000
aI65440000
aa(lp1602
I12
aI48
aI65600000
aI66760000
aa(lp1603
I12
aI49
aI66880000
aI67520000
aa(lp1604
I12
aI50
aI67520000
aI67960000
aa(lp1605
I12
aI51
aI67960000
aI68360000
aa(lp1606
I12
aI52
aI68440000
aI69440000
aa(lp1607
I12
aI53
aI70440000
aI74000000
aa(lp1608
I12
aI54
aI74000000
aI74720000
aa(lp1609
I12
aI55
aI74720000
aI75520000
aa(lp1610
I12
aI56
aI75520000
aI75960000
aa(lp1611
I12
aI57
aI75960000
aI76880000
aa(lp1612
I12
aI58
aI77040000
aI78280000
aa(lp1613
I12
aI59
aI78320000
aI80240000
aa(lp1614
I12
aI60
aI80640000
aI83760000
aa(lp1615
I12
aI61
aI84280000
aI86960000
aa(lp1616
I12
aI62
aI86960000
aI87920000
aa(lp1617
I12
aI63
aI87920000
aI88440000
aa(lp1618
I12
aI64
aI88440000
aI89880000
aa(lp1619
I12
aI65
aI89880000
aI90280000
aa(lp1620
I12
aI66
aI90280000
aI91640000
aa(lp1621
I12
aI67
aI91680000
aI92360000
aa(lp1622
I12
aI68
aI92360000
aI93040000
aa(lp1623
I12
aI69
aI93040000
aI94480000
aa(lp1624
I12
aI70
aI94480000
aI94800000
aa(lp1625
I12
aI71
aI94920000
aI95480000
aa(lp1626
I12
aI72
aI95480000
aI97320000
aa(lp1627
I12
aI73
aI98960000
aI99480000
aa(lp1628
I12
aI74
aI99720000
aI100320000
aa(lp1629
I12
aI75
aI100320000
aI102520000
aa(lp1630
I12
aI76
aI102680000
aI104040000
aa(lp1631
I12
aI77
aI104040000
aI104320000
aa(lp1632
I12
aI78
aI104320000
aI105240000
aa(lp1633
I12
aI79
aI105280000
aI105880000
aa(lp1634
I12
aI80
aI106000000
aI106560000
aa(lp1635
I12
aI81
aI106840000
aI107440000
aa(lp1636
I12
aI82
aI107440000
aI108720000
aa(lp1637
I12
aI83
aI108800000
aI109360000
aa(lp1638
I12
aI84
aI109360000
aI109560000
aa(lp1639
I12
aI85
aI109840000
aI110280000
aa(lp1640
I12
aI86
aI110280000
aI111400000
aa(lp1641
I12
aI87
aI111440000
aI112840000
aa(lp1642
I12
aI88
aI112880000
aI113520000
aa(lp1643
I12
aI89
aI113520000
aI114880000
aa(lp1644
I12
aI90
aI114880000
aI116080000
aa(lp1645
I12
aI91
aI116120000
aI117320000
aa(lp1646
I12
aI92
aI117320000
aI119040000
aa(lp1647
I12
aI93
aI119040000
aI120160000
aa(lp1648
I12
aI94
aI120240000
aI121280000
aa(lp1649
I12
aI95
aI121560000
aI122040000
aa(lp1650
I12
aI96
aI122040000
aI122680000
aa(lp1651
I12
aI97
aI122760000
aI123400000
aa(lp1652
I12
aI98
aI123440000
aI124040000
aa(lp1653
I12
aI99
aI124160000
aI126920000
aa(lp1654
I12
aI100
aI127240000
aI129080000
aa(lp1655
I12
aI101
aI129800000
aI131120000
aa(lp1656
I12
aI102
aI131240000
aI131920000
aa(lp1657
I12
aI103
aI131960000
aI132349534
aa(lp1658
I13
aI1
aI18080000
aI19000000
aa(lp1659
I13
aI2
aI19080000
aI21000000
aa(lp1660
I13
aI3
aI21040000
aI22800000
aa(lp1661
I13
aI4
aI22800000
aI23800000
aa(lp1662
I13
aI5
aI24040000
aI25560000
aa(lp1663
I13
aI6
aI25600000
aI26400000
aa(lp1664
I13
aI7
aI26400000
aI26840000
aa(lp1665
I13
aI8
aI26840000
aI27480000
aa(lp1666
I13
aI9
aI27760000
aI28880000
aa(lp1667
I13
aI10
aI28920000
aI29600000
aa(lp1668
I13
aI11
aI29600000
aI30640000
aa(lp1669
I13
aI12
aI30640000
aI31320000
aa(lp1670
I13
aI13
aI31320000
aI33240000
aa(lp1671
I13
aI14
aI33280000
aI35440000
aa(lp1672
I13
aI15
aI35760000
aI36480000
aa(lp1673
I13
aI16
aI36480000
aI38320000
aa(lp1674
I13
aI17
aI38440000
aI39120000
aa(lp1675
I13
aI18
aI39160000
aI40240000
aa(lp1676
I13
aI19
aI40440000
aI41120000
aa(lp1677
I13
aI20
aI41120000
aI41760000
aa(lp1678
I13
aI21
aI41760000
aI43360000
aa(lp1679
I13
aI22
aI43360000
aI43920000
aa(lp1680
I13
aI23
aI43960000
aI44960000
aa(lp1681
I13
aI24
aI45000000
aI45640000
aa(lp1682
I13
aI25
aI45920000
aI46200000
aa(lp1683
I13
aI26
aI46240000
aI47520000
aa(lp1684
I13
aI27
aI47560000
aI48240000
aa(lp1685
I13
aI28
aI48240000
aI48640000
aa(lp1686
I13
aI29
aI48760000
aI49080000
aa(lp1687
I13
aI30
aI49120000
aI50560000
aa(lp1688
I13
aI31
aI50600000
aI51960000
aa(lp1689
I13
aI32
aI52720000
aI56760000
aa(lp1690
I13
aI33
aI58360000
aI61480000
aa(lp1691
I13
aI34
aI61760000
aI63920000
aa(lp1692
I13
aI35
aI63920000
aI65120000
aa(lp1693
I13
aI36
aI65120000
aI66880000
aa(lp1694
I13
aI37
aI70560000
aI72160000
aa(lp1695
I13
aI38
aI72200000
aI73160000
aa(lp1696
I13
aI39
aI73200000
aI75320000
aa(lp1697
I13
aI40
aI75320000
aI76480000
aa(lp1698
I13
aI41
aI76520000
aI78760000
aa(lp1699
I13
aI42
aI78840000
aI80520000
aa(lp1700
I13
aI43
aI80640000
aI84320000
aa(lp1701
I13
aI44
aI84360000
aI85360000
aa(lp1702
I13
aI45
aI85400000
aI90520000
aa(lp1703
I13
aI46
aI91520000
aI93880000
aa(lp1704
I13
aI47
aI94080000
aI95440000
aa(lp1705
I13
aI48
aI95520000
aI96440000
aa(lp1706
I13
aI49
aI96440000
aI97240000
aa(lp1707
I13
aI50
aI97280000
aI98880000
aa(lp1708
I13
aI51
aI99040000
aI100000000
aa(lp1709
I13
aI52
aI100120000
aI100560000
aa(lp1710
I13
aI53
aI100560000
aI102320000
aa(lp1711
I13
aI54
aI102360000
aI106600000
aa(lp1712
I13
aI55
aI106640000
aI107680000
aa(lp1713
I13
aI56
aI107680000
aI108360000
aa(lp1714
I13
aI57
aI108360000
aI109600000
aa(lp1715
I13
aI58
aI109640000
aI110320000
aa(lp1716
I13
aI59
aI110360000
aI110720000
aa(lp1717
I13
aI60
aI110760000
aI112640000
aa(lp1718
I13
aI61
aI112640000
aI113200000
aa(lp1719
I13
aI62
aI113200000
aI114142980
aa(lp1720
I14
aI1
aI18480000
aI21160000
aa(lp1721
I14
aI2
aI21560000
aI22760000
aa(lp1722
I14
aI3
aI23120000
aI23960000
aa(lp1723
I14
aI4
aI24160000
aI24720000
aa(lp1724
I14
aI5
aI24800000
aI28160000
aa(lp1725
I14
aI6
aI28240000
aI30040000
aa(lp1726
I14
aI7
aI30160000
aI30960000
aa(lp1727
I14
aI8
aI30960000
aI32120000
aa(lp1728
I14
aI9
aI32120000
aI33880000
aa(lp1729
I14
aI10
aI34080000
aI34640000
aa(lp1730
I14
aI11
aI34640000
aI35360000
aa(lp1731
I14
aI12
aI35400000
aI36720000
aa(lp1732
I14
aI13
aI36760000
aI38560000
aa(lp1733
I14
aI14
aI38640000
aI39000000
aa(lp1734
I14
aI15
aI39000000
aI44400000
aa(lp1735
I14
aI16
aI44440000
aI44840000
aa(lp1736
I14
aI17
aI44880000
aI49120000
aa(lp1737
I14
aI18
aI49120000
aI49640000
aa(lp1738
I14
aI19
aI49640000
aI50400000
aa(lp1739
I14
aI20
aI50400000
aI51520000
aa(lp1740
I14
aI21
aI51720000
aI54000000
aa(lp1741
I14
aI22
aI54000000
aI54560000
aa(lp1742
I14
aI23
aI54600000
aI56040000
aa(lp1743
I14
aI24
aI56040000
aI57640000
aa(lp1744
I14
aI25
aI57760000
aI59040000
aa(lp1745
I14
aI26
aI59120000
aI60840000
aa(lp1746
I14
aI27
aI60880000
aI61400000
aa(lp1747
I14
aI28
aI61400000
aI62880000
aa(lp1748
I14
aI29
aI62920000
aI64040000
aa(lp1749
I14
aI30
aI64040000
aI64560000
aa(lp1750
I14
aI31
aI64600000
aI65520000
aa(lp1751
I14
aI32
aI65960000
aI66880000
aa(lp1752
I14
aI33
aI66920000
aI68320000
aa(lp1753
I14
aI34
aI68400000
aI69040000
aa(lp1754
I14
aI35
aI69080000
aI69280000
aa(lp1755
I14
aI36
aI69320000
aI72000000
aa(lp1756
I14
aI37
aI72000000
aI72520000
aa(lp1757
I14
aI38
aI72600000
aI73600000
aa(lp1758
I14
aI39
aI73640000
aI74400000
aa(lp1759
I14
aI40
aI74440000
aI74640000
aa(lp1760
I14
aI41
aI74640000
aI75080000
aa(lp1761
I14
aI42
aI75200000
aI75520000
aa(lp1762
I14
aI43
aI75520000
aI75960000
aa(lp1763
I14
aI44
aI76360000
aI77320000
aa(lp1764
I14
aI45
aI77320000
aI78400000
aa(lp1765
I14
aI46
aI78440000
aI81080000
aa(lp1766
I14
aI47
aI81080000
aI85080000
aa(lp1767
I14
aI48
aI85600000
aI87440000
aa(lp1768
I14
aI49
aI87480000
aI87920000
aa(lp1769
I14
aI50
aI88000000
aI89800000
aa(lp1770
I14
aI51
aI89800000
aI90240000
aa(lp1771
I14
aI52
aI90440000
aI90840000
aa(lp1772
I14
aI53
aI91000000
aI92360000
aa(lp1773
I14
aI54
aI92440000
aI94920000
aa(lp1774
I14
aI55
aI94960000
aI96080000
aa(lp1775
I14
aI56
aI96440000
aI98960000
aa(lp1776
I14
aI57
aI98960000
aI99440000
aa(lp1777
I14
aI58
aI99480000
aI99760000
aa(lp1778
I14
aI59
aI99800000
aI101240000
aa(lp1779
I14
aI60
aI101280000
aI101480000
aa(lp1780
I14
aI61
aI101480000
aI101880000
aa(lp1781
I14
aI62
aI101920000
aI102520000
aa(lp1782
I14
aI63
aI102600000
aI103080000
aa(lp1783
I14
aI64
aI103080000
aI104200000
aa(lp1784
I14
aI65
aI104280000
aI105080000
aa(lp1785
I14
aI66
aI105080000
aI106368585
aa(lp1786
I15
aI1
aI18240000
aI20120000
aa(lp1787
I15
aI2
aI20320000
aI20840000
aa(lp1788
I15
aI3
aI21160000
aI26240000
aa(lp1789
I15
aI4
aI26800000
aI27640000
aa(lp1790
I15
aI5
aI27720000
aI28200000
aa(lp1791
I15
aI6
aI28680000
aI30240000
aa(lp1792
I15
aI7
aI30680000
aI31240000
aa(lp1793
I15
aI8
aI31240000
aI32120000
aa(lp1794
I15
aI9
aI32120000
aI33040000
aa(lp1795
I15
aI10
aI33080000
aI36000000
aa(lp1796
I15
aI11
aI36040000
aI36480000
aa(lp1797
I15
aI12
aI36520000
aI36760000
aa(lp1798
I15
aI13
aI36760000
aI38080000
aa(lp1799
I15
aI14
aI38120000
aI38400000
aa(lp1800
I15
aI15
aI38520000
aI39480000
aa(lp1801
I15
aI16
aI39520000
aI39960000
aa(lp1802
I15
aI17
aI40040000
aI40560000
aa(lp1803
I15
aI18
aI40760000
aI41880000
aa(lp1804
I15
aI19
aI41880000
aI42640000
aa(lp1805
I15
aI20
aI42680000
aI45200000
aa(lp1806
I15
aI21
aI45240000
aI46400000
aa(lp1807
I15
aI22
aI46400000
aI48440000
aa(lp1808
I15
aI23
aI48520000
aI49880000
aa(lp1809
I15
aI24
aI50000000
aI50320000
aa(lp1810
I15
aI25
aI50320000
aI50840000
aa(lp1811
I15
aI26
aI50880000
aI53240000
aa(lp1812
I15
aI27
aI53240000
aI55640000
aa(lp1813
I15
aI28
aI56280000
aI57000000
aa(lp1814
I15
aI29
aI57040000
aI57760000
aa(lp1815
I15
aI30
aI57760000
aI59920000
aa(lp1816
I15
aI31
aI60400000
aI60840000
aa(lp1817
I15
aI32
aI60840000
aI61160000
aa(lp1818
I15
aI33
aI61680000
aI62200000
aa(lp1819
I15
aI34
aI62240000
aI63360000
aa(lp1820
I15
aI35
aI63400000
aI63960000
aa(lp1821
I15
aI36
aI64000000
aI64600000
aa(lp1822
I15
aI37
aI64600000
aI64960000
aa(lp1823
I15
aI38
aI65000000
aI66320000
aa(lp1824
I15
aI39
aI66320000
aI67040000
aa(lp1825
I15
aI40
aI67080000
aI67560000
aa(lp1826
I15
aI41
aI67600000
aI68720000
aa(lp1827
I15
aI42
aI68760000
aI70280000
aa(lp1828
I15
aI43
aI70320000
aI72000000
aa(lp1829
I15
aI44
aI72040000
aI72440000
aa(lp1830
I15
aI45
aI72440000
aI73040000
aa(lp1831
I15
aI46
aI73080000
aI73400000
aa(lp1832
I15
aI47
aI73440000
aI73920000
aa(lp1833
I15
aI48
aI74040000
aI75000000
aa(lp1834
I15
aI49
aI75080000
aI75960000
aa(lp1835
I15
aI50
aI76000000
aI77280000
aa(lp1836
I15
aI51
aI77360000
aI77920000
aa(lp1837
I15
aI52
aI78480000
aI79080000
aa(lp1838
I15
aI53
aI79160000
aI79360000
aa(lp1839
I15
aI54
aI79480000
aI80400000
aa(lp1840
I15
aI55
aI81000000
aI82760000
aa(lp1841
I15
aI56
aI82840000
aI83560000
aa(lp1842
I15
aI57
aI83600000
aI84200000
aa(lp1843
I15
aI58
aI84200000
aI86800000
aa(lp1844
I15
aI59
aI86960000
aI88600000
aa(lp1845
I15
aI60
aI88600000
aI89280000
aa(lp1846
I15
aI61
aI89320000
aI91080000
aa(lp1847
I15
aI62
aI91120000
aI91360000
aa(lp1848
I15
aI63
aI91400000
aI92720000
aa(lp1849
I15
aI64
aI93280000
aI96760000
aa(lp1850
I15
aI65
aI96800000
aI97600000
aa(lp1851
I15
aI66
aI97600000
aI98160000
aa(lp1852
I15
aI67
aI98160000
aI98960000
aa(lp1853
I15
aI68
aI98960000
aI100338915
aa(lp1854
I16
aI1
aI0
aI680000
aa(lp1855
I16
aI2
aI680000
aI1280000
aa(lp1856
I16
aI3
aI1280000
aI2040000
aa(lp1857
I16
aI4
aI2040000
aI3000000
aa(lp1858
I16
aI5
aI3000000
aI3480000
aa(lp1859
I16
aI6
aI3480000
aI4680000
aa(lp1860
I16
aI7
aI4680000
aI5080000
aa(lp1861
I16
aI8
aI5080000
aI8440000
aa(lp1862
I16
aI9
aI8440000
aI9160000
aa(lp1863
I16
aI10
aI9160000
aI10920000
aa(lp1864
I16
aI11
aI10920000
aI12080000
aa(lp1865
I16
aI12
aI12080000
aI12440000
aa(lp1866
I16
aI13
aI12440000
aI12880000
aa(lp1867
I16
aI14
aI12880000
aI13920000
aa(lp1868
I16
aI15
aI13920000
aI14240000
aa(lp1869
I16
aI16
aI14240000
aI14680000
aa(lp1870
I16
aI17
aI14920000
aI15680000
aa(lp1871
I16
aI18
aI15680000
aI16240000
aa(lp1872
I16
aI19
aI16800000
aI18080000
aa(lp1873
I16
aI20
aI18680000
aI19440000
aa(lp1874
I16
aI21
aI19440000
aI19840000
aa(lp1875
I16
aI22
aI19840000
aI20640000
aa(lp1876
I16
aI23
aI20640000
aI21040000
aa(lp1877
I16
aI24
aI21040000
aI21320000
aa(lp1878
I16
aI25
aI21440000
aI22640000
aa(lp1879
I16
aI26
aI22640000
aI23360000
aa(lp1880
I16
aI27
aI23360000
aI23520000
aa(lp1881
I16
aI28
aI23520000
aI24440000
aa(lp1882
I16
aI29
aI24440000
aI25160000
aa(lp1883
I16
aI30
aI25160000
aI27120000
aa(lp1884
I16
aI31
aI27120000
aI27400000
aa(lp1885
I16
aI32
aI27400000
aI28560000
aa(lp1886
I16
aI33
aI28760000
aI29360000
aa(lp1887
I16
aI34
aI29560000
aI30120000
aa(lp1888
I16
aI35
aI30240000
aI30880000
aa(lp1889
I16
aI36
aI30880000
aI31440000
aa(lp1890
I16
aI37
aI31440000
aI31880000
aa(lp1891
I16
aI38
aI32280000
aI32560000
aa(lp1892
I16
aI39
aI33280000
aI34000000
aa(lp1893
I16
aI40
aI34000000
aI35160000
aa(lp1894
I16
aI41
aI45000000
aI46840000
aa(lp1895
I16
aI42
aI46840000
aI47240000
aa(lp1896
I16
aI43
aI47240000
aI48080000
aa(lp1897
I16
aI44
aI48080000
aI48560000
aa(lp1898
I16
aI45
aI48560000
aI48960000
aa(lp1899
I16
aI46
aI48960000
aI49400000
aa(lp1900
I16
aI47
aI49400000
aI50760000
aa(lp1901
I16
aI48
aI50760000
aI51640000
aa(lp1902
I16
aI49
aI51640000
aI52040000
aa(lp1903
I16
aI50
aI52040000
aI54960000
aa(lp1904
I16
aI51
aI54960000
aI55800000
aa(lp1905
I16
aI52
aI55880000
aI56120000
aa(lp1906
I16
aI53
aI56120000
aI56320000
aa(lp1907
I16
aI54
aI56320000
aI56800000
aa(lp1908
I16
aI55
aI56800000
aI57320000
aa(lp1909
I16
aI56
aI57320000
aI61840000
aa(lp1910
I16
aI57
aI61840000
aI63600000
aa(lp1911
I16
aI58
aI63600000
aI64960000
aa(lp1912
I16
aI59
aI64960000
aI65320000
aa(lp1913
I16
aI60
aI65440000
aI65800000
aa(lp1914
I16
aI61
aI65800000
aI66040000
aa(lp1915
I16
aI62
aI66040000
aI66560000
aa(lp1916
I16
aI63
aI66560000
aI66960000
aa(lp1917
I16
aI64
aI66960000
aI67440000
aa(lp1918
I16
aI65
aI67440000
aI67920000
aa(lp1919
I16
aI66
aI67920000
aI68760000
aa(lp1920
I16
aI67
aI68880000
aI69400000
aa(lp1921
I16
aI68
aI69400000
aI70240000
aa(lp1922
I16
aI69
aI70240000
aI70640000
aa(lp1923
I16
aI70
aI70640000
aI72880000
aa(lp1924
I16
aI71
aI72880000
aI73240000
aa(lp1925
I16
aI72
aI73240000
aI73760000
aa(lp1926
I16
aI73
aI73760000
aI74240000
aa(lp1927
I16
aI74
aI74240000
aI75800000
aa(lp1928
I16
aI75
aI75800000
aI76680000
aa(lp1929
I16
aI76
aI76680000
aI79560000
aa(lp1930
I16
aI77
aI79560000
aI80400000
aa(lp1931
I16
aI78
aI80400000
aI80840000
aa(lp1932
I16
aI79
aI80840000
aI82560000
aa(lp1933
I16
aI80
aI82560000
aI83080000
aa(lp1934
I16
aI81
aI83080000
aI83680000
aa(lp1935
I16
aI82
aI83680000
aI84240000
aa(lp1936
I16
aI83
aI84240000
aI85080000
aa(lp1937
I16
aI84
aI85080000
aI85960000
aa(lp1938
I16
aI85
aI85960000
aI86480000
aa(lp1939
I16
aI86
aI86480000
aI87320000
aa(lp1940
I16
aI87
aI87320000
aI87840000
aa(lp1941
I16
aI88
aI87840000
aI88827254
aa(lp1942
I17
aI1
aI0
aI600000
aa(lp1943
I17
aI2
aI600000
aI920000
aa(lp1944
I17
aI3
aI960000
aI1400000
aa(lp1945
I17
aI4
aI1520000
aI1880000
aa(lp1946
I17
aI5
aI1920000
aI2200000
aa(lp1947
I17
aI6
aI2200000
aI2560000
aa(lp1948
I17
aI7
aI2600000
aI3520000
aa(lp1949
I17
aI8
aI3520000
aI4920000
aa(lp1950
I17
aI9
aI5040000
aI7040000
aa(lp1951
I17
aI10
aI7160000
aI7400000
aa(lp1952
I17
aI11
aI7520000
aI8240000
aa(lp1953
I17
aI12
aI8280000
aI8600000
aa(lp1954
I17
aI13
aI8640000
aI9440000
aa(lp1955
I17
aI14
aI9480000
aI10480000
aa(lp1956
I17
aI15
aI10760000
aI11840000
aa(lp1957
I17
aI16
aI11840000
aI12880000
aa(lp1958
I17
aI17
aI12880000
aI15080000
aa(lp1959
I17
aI18
aI15080000
aI15400000
aa(lp1960
I17
aI19
aI15640000
aI15840000
aa(lp1961
I17
aI20
aI15880000
aI16440000
aa(lp1962
I17
aI21
aI16720000
aI18880000
aa(lp1963
I17
aI22
aI19080000
aI19640000
aa(lp1964
I17
aI23
aI19800000
aI20200000
aa(lp1965
I17
aI24
aI20360000
aI22200000
aa(lp1966
I17
aI25
aI22320000
aI23000000
aa(lp1967
I17
aI26
aI23360000
aI23920000
aa(lp1968
I17
aI27
aI24000000
aI24920000
aa(lp1969
I17
aI28
aI24920000
aI25440000
aa(lp1970
I17
aI29
aI25480000
aI26120000
aa(lp1971
I17
aI30
aI26200000
aI26760000
aa(lp1972
I17
aI31
aI26880000
aI27760000
aa(lp1973
I17
aI32
aI27760000
aI29040000
aa(lp1974
I17
aI33
aI29520000
aI29720000
aa(lp1975
I17
aI34
aI29760000
aI31520000
aa(lp1976
I17
aI35
aI31920000
aI32720000
aa(lp1977
I17
aI36
aI33040000
aI33360000
aa(lp1978
I17
aI37
aI33720000
aI35360000
aa(lp1979
I17
aI38
aI35400000
aI36920000
aa(lp1980
I17
aI39
aI37320000
aI37960000
aa(lp1981
I17
aI40
aI37960000
aI38400000
aa(lp1982
I17
aI41
aI38400000
aI38800000
aa(lp1983
I17
aI42
aI38800000
aI39560000
aa(lp1984
I17
aI43
aI39640000
aI40560000
aa(lp1985
I17
aI44
aI40640000
aI40960000
aa(lp1986
I17
aI45
aI41040000
aI41400000
aa(lp1987
I17
aI46
aI41440000
aI41760000
aa(lp1988
I17
aI47
aI42120000
aI43240000
aa(lp1989
I17
aI48
aI43280000
aI44680000
aa(lp1990
I17
aI49
aI44720000
aI45800000
aa(lp1991
I17
aI50
aI45920000
aI46640000
aa(lp1992
I17
aI51
aI46720000
aI50320000
aa(lp1993
I17
aI52
aI50400000
aI52400000
aa(lp1994
I17
aI53
aI52480000
aI53920000
aa(lp1995
I17
aI54
aI53960000
aI54520000
aa(lp1996
I17
aI55
aI54640000
aI55040000
aa(lp1997
I17
aI56
aI55080000
aI55360000
aa(lp1998
I17
aI57
aI55520000
aI56080000
aa(lp1999
I17
aI58
aI56120000
aI57840000
aa(lp2000
I17
aI59
aI57960000
aI59280000
aa(lp2001
I17
aI60
aI59280000
aI59960000
aa(lp2002
I17
aI61
aI59960000
aI60200000
aa(lp2003
I17
aI62
aI60280000
aI61600000
aa(lp2004
I17
aI63
aI61640000
aI62760000
aa(lp2005
I17
aI64
aI62800000
aI63160000
aa(lp2006
I17
aI65
aI63440000
aI64000000
aa(lp2007
I17
aI66
aI64000000
aI64760000
aa(lp2008
I17
aI67
aI64840000
aI66120000
aa(lp2009
I17
aI68
aI66160000
aI68040000
aa(lp2010
I17
aI69
aI68080000
aI68920000
aa(lp2011
I17
aI70
aI68920000
aI70280000
aa(lp2012
I17
aI71
aI70400000
aI71320000
aa(lp2013
I17
aI72
aI71360000
aI72240000
aa(lp2014
I17
aI73
aI72240000
aI72760000
aa(lp2015
I17
aI74
aI73000000
aI73720000
aa(lp2016
I17
aI75
aI73760000
aI74520000
aa(lp2017
I17
aI76
aI74600000
aI75280000
aa(lp2018
I17
aI77
aI75320000
aI75600000
aa(lp2019
I17
aI78
aI75600000
aI76800000
aa(lp2020
I17
aI79
aI76800000
aI77280000
aa(lp2021
I17
aI80
aI77480000
aI77720000
aa(lp2022
I17
aI81
aI77760000
aI78600000
aa(lp2023
I18
aI1
aI40000
aI840000
aa(lp2024
I18
aI2
aI840000
aI2560000
aa(lp2025
I18
aI3
aI2560000
aI3240000
aa(lp2026
I18
aI4
aI3240000
aI4080000
aa(lp2027
I18
aI5
aI4080000
aI6520000
aa(lp2028
I18
aI6
aI6520000
aI6920000
aa(lp2029
I18
aI7
aI7200000
aI8640000
aa(lp2030
I18
aI8
aI8640000
aI9040000
aa(lp2031
I18
aI9
aI9040000
aI9560000
aa(lp2032
I18
aI10
aI9560000
aI9920000
aa(lp2033
I18
aI11
aI9960000
aI10520000
aa(lp2034
I18
aI12
aI10520000
aI11600000
aa(lp2035
I18
aI13
aI11600000
aI12280000
aa(lp2036
I18
aI14
aI12320000
aI13120000
aa(lp2037
I18
aI15
aI13160000
aI13760000
aa(lp2038
I18
aI16
aI13800000
aI14480000
aa(lp2039
I18
aI17
aI14480000
aI15400000
aa(lp2040
I18
aI18
aI16760000
aI18640000
aa(lp2041
I18
aI19
aI18640000
aI19320000
aa(lp2042
I18
aI20
aI19320000
aI20000000
aa(lp2043
I18
aI21
aI20280000
aI21960000
aa(lp2044
I18
aI22
aI22080000
aI23400000
aa(lp2045
I18
aI23
aI23400000
aI26800000
aa(lp2046
I18
aI24
aI27360000
aI30680000
aa(lp2047
I18
aI25
aI30680000
aI31000000
aa(lp2048
I18
aI26
aI31040000
aI31800000
aa(lp2049
I18
aI27
aI31800000
aI33400000
aa(lp2050
I18
aI28
aI33400000
aI37880000
aa(lp2051
I18
aI29
aI37920000
aI39360000
aa(lp2052
I18
aI30
aI39360000
aI41400000
aa(lp2053
I18
aI31
aI41480000
aI41960000
aa(lp2054
I18
aI32
aI41960000
aI42800000
aa(lp2055
I18
aI33
aI42800000
aI44200000
aa(lp2056
I18
aI34
aI44240000
aI45280000
aa(lp2057
I18
aI35
aI45280000
aI46200000
aa(lp2058
I18
aI36
aI46400000
aI49920000
aa(lp2059
I18
aI37
aI50160000
aI50840000
aa(lp2060
I18
aI38
aI51000000
aI52520000
aa(lp2061
I18
aI39
aI52520000
aI53400000
aa(lp2062
I18
aI40
aI53440000
aI54320000
aa(lp2063
I18
aI41
aI54320000
aI55240000
aa(lp2064
I18
aI42
aI55240000
aI55720000
aa(lp2065
I18
aI43
aI55800000
aI56400000
aa(lp2066
I18
aI44
aI56480000
aI58000000
aa(lp2067
I18
aI45
aI58000000
aI59840000
aa(lp2068
I18
aI46
aI59840000
aI62880000
aa(lp2069
I18
aI47
aI62920000
aI64600000
aa(lp2070
I18
aI48
aI64640000
aI66320000
aa(lp2071
I18
aI49
aI66360000
aI68400000
aa(lp2072
I18
aI50
aI68480000
aI70000000
aa(lp2073
I18
aI51
aI70400000
aI72200000
aa(lp2074
I18
aI52
aI72200000
aI72640000
aa(lp2075
I18
aI53
aI72800000
aI75200000
aa(lp2076
I18
aI54
aI75200000
aI75520000
aa(lp2077
I18
aI55
aI75560000
aI76117153
aa(lp2078
I19
aI1
aI160000
aI440000
aa(lp2079
I19
aI2
aI440000
aI1200000
aa(lp2080
I19
aI3
aI1200000
aI1800000
aa(lp2081
I19
aI4
aI1800000
aI2600000
aa(lp2082
I19
aI5
aI2600000
aI3240000
aa(lp2083
I19
aI6
aI3240000
aI3640000
aa(lp2084
I19
aI7
aI3640000
aI3920000
aa(lp2085
I19
aI8
aI3920000
aI4680000
aa(lp2086
I19
aI9
aI4680000
aI4960000
aa(lp2087
I19
aI10
aI4960000
aI5640000
aa(lp2088
I19
aI11
aI5640000
aI6360000
aa(lp2089
I19
aI12
aI6360000
aI7000000
aa(lp2090
I19
aI13
aI7000000
aI7880000
aa(lp2091
I19
aI14
aI7880000
aI8280000
aa(lp2092
I19
aI15
aI8280000
aI8600000
aa(lp2093
I19
aI16
aI8600000
aI9880000
aa(lp2094
I19
aI17
aI9880000
aI10080000
aa(lp2095
I19
aI18
aI10080000
aI10400000
aa(lp2096
I19
aI19
aI10400000
aI10840000
aa(lp2097
I19
aI20
aI10840000
aI11480000
aa(lp2098
I19
aI21
aI11480000
aI12960000
aa(lp2099
I19
aI22
aI12960000
aI13840000
aa(lp2100
I19
aI23
aI13840000
aI14120000
aa(lp2101
I19
aI24
aI14120000
aI14480000
aa(lp2102
I19
aI25
aI14480000
aI16200000
aa(lp2103
I19
aI26
aI16200000
aI16520000
aa(lp2104
I19
aI27
aI16520000
aI17240000
aa(lp2105
I19
aI28
aI17240000
aI18400000
aa(lp2106
I19
aI29
aI18400000
aI19480000
aa(lp2107
I19
aI30
aI19480000
aI32480000
aa(lp2108
I19
aI31
aI32480000
aI34760000
aa(lp2109
I19
aI32
aI34760000
aI35840000
aa(lp2110
I19
aI33
aI35840000
aI37840000
aa(lp2111
I19
aI34
aI37840000
aI38120000
aa(lp2112
I19
aI35
aI38120000
aI38400000
aa(lp2113
I19
aI36
aI38400000
aI40920000
aa(lp2114
I19
aI37
aI40920000
aI41200000
aa(lp2115
I19
aI38
aI41200000
aI43080000
aa(lp2116
I19
aI39
aI43080000
aI43560000
aa(lp2117
I19
aI40
aI43560000
aI44160000
aa(lp2118
I19
aI41
aI44160000
aI44600000
aa(lp2119
I19
aI42
aI44600000
aI45440000
aa(lp2120
I19
aI43
aI45440000
aI45840000
aa(lp2121
I19
aI44
aI45840000
aI46040000
aa(lp2122
I19
aI45
aI46040000
aI47120000
aa(lp2123
I19
aI46
aI47120000
aI47600000
aa(lp2124
I19
aI47
aI47600000
aI49000000
aa(lp2125
I19
aI48
aI49000000
aI50200000
aa(lp2126
I19
aI49
aI50200000
aI51000000
aa(lp2127
I19
aI50
aI51000000
aI51920000
aa(lp2128
I19
aI51
aI51920000
aI52400000
aa(lp2129
I19
aI52
aI52400000
aI52960000
aa(lp2130
I19
aI53
aI52960000
aI53120000
aa(lp2131
I19
aI54
aI53120000
aI53840000
aa(lp2132
I19
aI55
aI53840000
aI54200000
aa(lp2133
I19
aI56
aI54200000
aI55120000
aa(lp2134
I19
aI57
aI55120000
aI57040000
aa(lp2135
I19
aI58
aI57040000
aI59000000
aa(lp2136
I19
aI59
aI59000000
aI59640000
aa(lp2137
I19
aI60
aI59640000
aI60280000
aa(lp2138
I19
aI61
aI60280000
aI60920000
aa(lp2139
I19
aI62
aI60920000
aI61600000
aa(lp2140
I19
aI63
aI61600000
aI62400000
aa(lp2141
I19
aI64
aI62400000
aI63811651
aa(lp2142
I20
aI1
aI0
aI1440000
aa(lp2143
I20
aI2
aI1680000
aI2600000
aa(lp2144
I20
aI3
aI2600000
aI3000000
aa(lp2145
I20
aI4
aI3120000
aI4040000
aa(lp2146
I20
aI5
aI4080000
aI5120000
aa(lp2147
I20
aI6
aI5160000
aI6000000
aa(lp2148
I20
aI7
aI6040000
aI7840000
aa(lp2149
I20
aI8
aI7880000
aI8680000
aa(lp2150
I20
aI9
aI8680000
aI9400000
aa(lp2151
I20
aI10
aI9880000
aI10360000
aa(lp2152
I20
aI11
aI10360000
aI11520000
aa(lp2153
I20
aI12
aI11520000
aI13760000
aa(lp2154
I20
aI13
aI14000000
aI16720000
aa(lp2155
I20
aI14
aI16720000
aI17400000
aa(lp2156
I20
aI15
aI17400000
aI18240000
aa(lp2157
I20
aI16
aI18480000
aI19600000
aa(lp2158
I20
aI17
aI19600000
aI20000000
aa(lp2159
I20
aI18
aI20000000
aI20640000
aa(lp2160
I20
aI19
aI20760000
aI22200000
aa(lp2161
I20
aI20
aI22240000
aI23560000
aa(lp2162
I20
aI21
aI24000000
aI24880000
aa(lp2163
I20
aI22
aI24920000
aI26280000
aa(lp2164
I20
aI23
aI28080000
aI30880000
aa(lp2165
I20
aI24
aI30880000
aI31440000
aa(lp2166
I20
aI25
aI31440000
aI31720000
aa(lp2167
I20
aI26
aI31840000
aI32200000
aa(lp2168
I20
aI27
aI32360000
aI32600000
aa(lp2169
I20
aI28
aI32600000
aI32840000
aa(lp2170
I20
aI29
aI32840000
aI33760000
aa(lp2171
I20
aI30
aI33760000
aI34000000
aa(lp2172
I20
aI31
aI34000000
aI34240000
aa(lp2173
I20
aI32
aI34280000
aI35240000
aa(lp2174
I20
aI33
aI35240000
aI35600000
aa(lp2175
I20
aI34
aI35600000
aI36640000
aa(lp2176
I20
aI35
aI36640000
aI39040000
aa(lp2177
I20
aI36
aI39200000
aI39760000
aa(lp2178
I20
aI37
aI39760000
aI41480000
aa(lp2179
I20
aI38
aI41520000
aI42280000
aa(lp2180
I20
aI39
aI42280000
aI42960000
aa(lp2181
I20
aI40
aI43040000
aI44760000
aa(lp2182
I20
aI41
aI44760000
aI45240000
aa(lp2183
I20
aI42
aI45240000
aI45720000
aa(lp2184
I20
aI43
aI45720000
aI47280000
aa(lp2185
I20
aI44
aI47320000
aI48000000
aa(lp2186
I20
aI45
aI48000000
aI49000000
aa(lp2187
I20
aI46
aI49000000
aI49400000
aa(lp2188
I20
aI47
aI49400000
aI49640000
aa(lp2189
I20
aI48
aI49640000
aI50240000
aa(lp2190
I20
aI49
aI50240000
aI51600000
aa(lp2191
I20
aI50
aI51600000
aI52280000
aa(lp2192
I20
aI51
aI52280000
aI52720000
aa(lp2193
I20
aI52
aI52760000
aI54360000
aa(lp2194
I20
aI53
aI54360000
aI55360000
aa(lp2195
I20
aI54
aI55360000
aI56200000
aa(lp2196
I20
aI55
aI56200000
aI57560000
aa(lp2197
I20
aI56
aI57880000
aI60000000
aa(lp2198
I20
aI57
aI60000000
aI60160000
aa(lp2199
I20
aI58
aI60400000
aI60920000
aa(lp2200
I20
aI59
aI60920000
aI61600000
aa(lp2201
I20
aI60
aI61600000
aI62435964
aa(lp2202
I21
aI1
aI9880000
aI10240000
aa(lp2203
I21
aI2
aI13280000
aI16160000
aa(lp2204
I21
aI3
aI16160000
aI18280000
aa(lp2205
I21
aI4
aI18320000
aI21080000
aa(lp2206
I21
aI5
aI21240000
aI23160000
aa(lp2207
I21
aI6
aI24320000
aI25680000
aa(lp2208
I21
aI7
aI26160000
aI27000000
aa(lp2209
I21
aI8
aI27040000
aI28000000
aa(lp2210
I21
aI9
aI28000000
aI29320000
aa(lp2211
I21
aI10
aI29360000
aI29680000
aa(lp2212
I21
aI11
aI29760000
aI31360000
aa(lp2213
I21
aI12
aI31400000
aI31960000
aa(lp2214
I21
aI13
aI31960000
aI32600000
aa(lp2215
I21
aI14
aI32600000
aI32920000
aa(lp2216
I21
aI15
aI33080000
aI33800000
aa(lp2217
I21
aI16
aI33840000
aI34200000
aa(lp2218
I21
aI17
aI34200000
aI34680000
aa(lp2219
I21
aI18
aI34680000
aI34920000
aa(lp2220
I21
aI19
aI34920000
aI36440000
aa(lp2221
I21
aI20
aI36440000
aI36640000
aa(lp2222
I21
aI21
aI36680000
aI37440000
aa(lp2223
I21
aI22
aI37440000
aI37880000
aa(lp2224
I21
aI23
aI37960000
aI38720000
aa(lp2225
I21
aI24
aI38720000
aI39760000
aa(lp2226
I21
aI25
aI39760000
aI41440000
aa(lp2227
I21
aI26
aI41440000
aI42120000
aa(lp2228
I21
aI27
aI42120000
aI42840000
aa(lp2229
I21
aI28
aI42840000
aI43120000
aa(lp2230
I21
aI29
aI43160000
aI44040000
aa(lp2231
I21
aI30
aI44040000
aI44360000
aa(lp2232
I21
aI31
aI44360000
aI45040000
aa(lp2233
I21
aI32
aI45040000
aI45400000
aa(lp2234
I21
aI33
aI45440000
aI46160000
aa(lp2235
I21
aI34
aI46160000
aI46944323
aa(lp2236
I22
aI1
aI15240000
aI16400000
aa(lp2237
I22
aI2
aI16400000
aI17040000
aa(lp2238
I22
aI3
aI17320000
aI18040000
aa(lp2239
I22
aI4
aI18080000
aI18320000
aa(lp2240
I22
aI5
aI18480000
aI19720000
aa(lp2241
I22
aI6
aI20240000
aI23360000
aa(lp2242
I22
aI7
aI23400000
aI25080000
aa(lp2243
I22
aI8
aI25200000
aI25560000
aa(lp2244
I22
aI9
aI25560000
aI26600000
aa(lp2245
I22
aI10
aI26600000
aI28000000
aa(lp2246
I22
aI11
aI28040000
aI29080000
aa(lp2247
I22
aI12
aI29320000
aI30040000
aa(lp2248
I22
aI13
aI30160000
aI31720000
aa(lp2249
I22
aI14
aI31800000
aI34200000
aa(lp2250
I22
aI15
aI34200000
aI34840000
aa(lp2251
I22
aI16
aI35000000
aI35240000
aa(lp2252
I22
aI17
aI35240000
aI35760000
aa(lp2253
I22
aI18
aI35960000
aI36200000
aa(lp2254
I22
aI19
aI36640000
aI37440000
aa(lp2255
I22
aI20
aI37480000
aI39080000
aa(lp2256
I22
aI21
aI39120000
aI40240000
aa(lp2257
I22
aI22
aI40360000
aI41280000
aa(lp2258
I22
aI23
aI41320000
aI41880000
aa(lp2259
I22
aI24
aI41920000
aI43480000
aa(lp2260
I22
aI25
aI43520000
aI45360000
aa(lp2261
I22
aI26
aI45560000
aI48520000
aa(lp2262
I22
aI27
aI48560000
aI49691432
aa(lp2263
I0
aI1
aI2680000
aI3760000
aa(lp2264
I0
aI2
aI3840000
aI8640000
aa(lp2265
I0
aI3
aI8640000
aI10080000
aa(lp2266
I0
aI4
aI10080000
aI11040000
aa(lp2267
I0
aI5
aI11080000
aI11720000
aa(lp2268
I0
aI6
aI11720000
aI12720000
aa(lp2269
I0
aI7
aI12720000
aI13440000
aa(lp2270
I0
aI8
aI13440000
aI13960000
aa(lp2271
I0
aI9
aI13960000
aI15240000
aa(lp2272
I0
aI10
aI15240000
aI16720000
aa(lp2273
I0
aI11
aI16720000
aI17600000
aa(lp2274
I0
aI12
aI17680000
aI19360000
aa(lp2275
I0
aI13
aI19440000
aI20120000
aa(lp2276
I0
aI14
aI20160000
aI21680000
aa(lp2277
I0
aI15
aI21720000
aI23560000
aa(lp2278
I0
aI16
aI23600000
aI23840000
aa(lp2279
I0
aI17
aI23960000
aI25120000
aa(lp2280
I0
aI18
aI25200000
aI27280000
aa(lp2281
I0
aI19
aI27440000
aI30520000
aa(lp2282
I0
aI20
aI30720000
aI31640000
aa(lp2283
I0
aI21
aI32240000
aI34280000
aa(lp2284
I0
aI22
aI34360000
aI36880000
aa(lp2285
I0
aI23
aI37000000
aI38120000
aa(lp2286
I0
aI24
aI38320000
aI40320000
aa(lp2287
I0
aI25
aI40320000
aI41520000
aa(lp2288
I0
aI26
aI41520000
aI43520000
aa(lp2289
I0
aI27
aI43560000
aI44920000
aa(lp2290
I0
aI28
aI45000000
aI46200000
aa(lp2291
I0
aI29
aI46240000
aI46840000
aa(lp2292
I0
aI30
aI46880000
aI48320000
aa(lp2293
I0
aI31
aI48360000
aI49080000
aa(lp2294
I0
aI32
aI49240000
aI50800000
aa(lp2295
I0
aI33
aI51280000
aI52120000
aa(lp2296
I0
aI34
aI53000000
aI55120000
aa(lp2297
I0
aI35
aI55240000
aI56800000
aa(lp2298
I0
aI36
aI56800000
aI58600000
aa(lp2299
I0
aI37
aI61640000
aI64640000
aa(lp2300
I0
aI38
aI64640000
aI67160000
aa(lp2301
I0
aI39
aI67280000
aI68520000
aa(lp2302
I0
aI40
aI68640000
aI69240000
aa(lp2303
I0
aI41
aI69560000
aI70080000
aa(lp2304
I0
aI42
aI70120000
aI70840000
aa(lp2305
I0
aI43
aI70920000
aI71880000
aa(lp2306
I0
aI44
aI72080000
aI72920000
aa(lp2307
I0
aI45
aI72960000
aI73760000
aa(lp2308
I0
aI46
aI73760000
aI75200000
aa(lp2309
I0
aI47
aI75480000
aI77280000
aa(lp2310
I0
aI48
aI77560000
aI78640000
aa(lp2311
I0
aI49
aI79720000
aI82560000
aa(lp2312
I0
aI50
aI83000000
aI84200000
aa(lp2313
I0
aI51
aI84800000
aI88160000
aa(lp2314
I0
aI52
aI88480000
aI89640000
aa(lp2315
I0
aI53
aI89640000
aI89880000
aa(lp2316
I0
aI54
aI89880000
aI91000000
aa(lp2317
I0
aI55
aI91040000
aI91160000
aa(lp2318
I0
aI56
aI91200000
aI91680000
aa(lp2319
I0
aI57
aI91680000
aI99560000
aa(lp2320
I0
aI58
aI99600000
aI100520000
aa(lp2321
I0
aI59
aI100560000
aI100960000
aa(lp2322
I0
aI60
aI101600000
aI102080000
aa(lp2323
I0
aI61
aI102080000
aI103320000
aa(lp2324
I0
aI62
aI105560000
aI107240000
aa(lp2325
I0
aI63
aI107280000
aI107720000
aa(lp2326
I0
aI64
aI108600000
aI109560000
aa(lp2327
I0
aI65
aI109600000
aI110400000
aa(lp2328
I0
aI66
aI110680000
aI114320000
aa(lp2329
I0
aI67
aI114440000
aI114880000
aa(lp2330
I0
aI68
aI114920000
aI117320000
aa(lp2331
I0
aI69
aI117360000
aI117840000
aa(lp2332
I0
aI70
aI117840000
aI119280000
aa(lp2333
I0
aI71
aI119800000
aI122400000
aa(lp2334
I0
aI72
aI122520000
aI123080000
aa(lp2335
I0
aI73
aI123320000
aI128280000
aa(lp2336
I0
aI74
aI128400000
aI129200000
aa(lp2337
I0
aI75
aI129280000
aI130600000
aa(lp2338
I0
aI76
aI130760000
aI131600000
aa(lp2339
I0
aI77
aI131840000
aI132880000
aa(lp2340
I0
aI78
aI133320000
aI134080000
aa(lp2341
I0
aI79
aI134120000
aI136000000
aa(lp2342
I0
aI80
aI137680000
aI139640000
aa(lp2343
I0
aI81
aI139680000
aI146120000
aa(lp2344
I0
aI82
aI146800000
aI148360000
aa(lp2345
I0
aI83
aI148400000
aI149680000
aa(lp2346
I0
aI84
aI149680000
aI151720000
aa(lp2347
I0
aI85
aI151840000
aI152400000
aa(lp2348
I0
aI86
aI152440000
aI154600000
aa.